###############################################################################
#
# IAR ELF Linker V7.70.1.11437/W32 for ARM                08/May/2018  16:20:10
# Copyright 2007-2016 IAR Systems AB.
#
#    Output file  =  C:\Users\Gianluca\Documents\mbed\Heart\BUILD\Exe\name.out
#    Map file     =  C:\Users\Gianluca\Documents\mbed\Heart\BUILD\List\name.map
#    Command line =  
#        C:\Users\Gianluca\Documents\mbed\Heart\BUILD\Obj\aes.o
#        C:\Users\Gianluca\Documents\mbed\Heart\BUILD\Obj\aesni.o
#        C:\Users\Gianluca\Documents\mbed\Heart\BUILD\Obj\AnalogIn.o
#        C:\Users\Gianluca\Documents\mbed\Heart\BUILD\Obj\arc4.o
#        C:\Users\Gianluca\Documents\mbed\Heart\BUILD\Obj\asn1parse.o
#        C:\Users\Gianluca\Documents\mbed\Heart\BUILD\Obj\asn1write.o
#        C:\Users\Gianluca\Documents\mbed\Heart\BUILD\Obj\ATCmdParser.o
#        C:\Users\Gianluca\Documents\mbed\Heart\BUILD\Obj\base64.o
#        C:\Users\Gianluca\Documents\mbed\Heart\BUILD\Obj\bignum.o
#        C:\Users\Gianluca\Documents\mbed\Heart\BUILD\Obj\BLE.o
#        C:\Users\Gianluca\Documents\mbed\Heart\BUILD\Obj\ble_payload.o
#        C:\Users\Gianluca\Documents\mbed\Heart\BUILD\Obj\ble_utils.o
#        C:\Users\Gianluca\Documents\mbed\Heart\BUILD\Obj\BLEInstanceBase.o
#        C:\Users\Gianluca\Documents\mbed\Heart\BUILD\Obj\blowfish.o
#        C:\Users\Gianluca\Documents\mbed\Heart\BUILD\Obj\BlueNRG1_adc.o
#        C:\Users\Gianluca\Documents\mbed\Heart\BUILD\Obj\BlueNRG1_ble.o
#        C:\Users\Gianluca\Documents\mbed\Heart\BUILD\Obj\BlueNRG1_dma.o
#        C:\Users\Gianluca\Documents\mbed\Heart\BUILD\Obj\BlueNRG1_flash.o
#        C:\Users\Gianluca\Documents\mbed\Heart\BUILD\Obj\BlueNRG1_gpio.o
#        C:\Users\Gianluca\Documents\mbed\Heart\BUILD\Obj\BlueNRG1_i2c.o
#        C:\Users\Gianluca\Documents\mbed\Heart\BUILD\Obj\BlueNRG1_it.o
#        C:\Users\Gianluca\Documents\mbed\Heart\BUILD\Obj\BlueNRG1_mft.o
#        C:\Users\Gianluca\Documents\mbed\Heart\BUILD\Obj\BlueNRG1_pka.o
#        C:\Users\Gianluca\Documents\mbed\Heart\BUILD\Obj\BlueNRG1_rng.o
#        C:\Users\Gianluca\Documents\mbed\Heart\BUILD\Obj\BlueNRG1_rtc.o
#        C:\Users\Gianluca\Documents\mbed\Heart\BUILD\Obj\BlueNRG1_spi.o
#        C:\Users\Gianluca\Documents\mbed\Heart\BUILD\Obj\BlueNRG1_sysCtrl.o
#        C:\Users\Gianluca\Documents\mbed\Heart\BUILD\Obj\BlueNRG1_uart.o
#        C:\Users\Gianluca\Documents\mbed\Heart\BUILD\Obj\BlueNRG1_wdg.o
#        C:\Users\Gianluca\Documents\mbed\Heart\BUILD\Obj\BlueNRG1Device.o
#        C:\Users\Gianluca\Documents\mbed\Heart\BUILD\Obj\BlueNRG1DiscoveredCharacteristic.o
#        C:\Users\Gianluca\Documents\mbed\Heart\BUILD\Obj\BlueNRG1Gap.o
#        C:\Users\Gianluca\Documents\mbed\Heart\BUILD\Obj\BlueNRG1GattClient.o
#        C:\Users\Gianluca\Documents\mbed\Heart\BUILD\Obj\BlueNRG1GattConnectionClient.o
#        C:\Users\Gianluca\Documents\mbed\Heart\BUILD\Obj\BlueNRG1GattServer.o
#        C:\Users\Gianluca\Documents\mbed\Heart\BUILD\Obj\btle.o
#        C:\Users\Gianluca\Documents\mbed\Heart\BUILD\Obj\BusIn.o
#        C:\Users\Gianluca\Documents\mbed\Heart\BUILD\Obj\BusInOut.o
#        C:\Users\Gianluca\Documents\mbed\Heart\BUILD\Obj\BusOut.o
#        C:\Users\Gianluca\Documents\mbed\Heart\BUILD\Obj\CallChain.o
#        C:\Users\Gianluca\Documents\mbed\Heart\BUILD\Obj\camellia.o
#        C:\Users\Gianluca\Documents\mbed\Heart\BUILD\Obj\CAN.o
#        C:\Users\Gianluca\Documents\mbed\Heart\BUILD\Obj\ccm.o
#        C:\Users\Gianluca\Documents\mbed\Heart\BUILD\Obj\ccsbcs.o
#        C:\Users\Gianluca\Documents\mbed\Heart\BUILD\Obj\certs.o
#        C:\Users\Gianluca\Documents\mbed\Heart\BUILD\Obj\ChainingBlockDevice.o
#        C:\Users\Gianluca\Documents\mbed\Heart\BUILD\Obj\cipher.o
#        C:\Users\Gianluca\Documents\mbed\Heart\BUILD\Obj\cipher_wrap.o
#        C:\Users\Gianluca\Documents\mbed\Heart\BUILD\Obj\cmac.o
#        C:\Users\Gianluca\Documents\mbed\Heart\BUILD\Obj\cmain.o
#        C:\Users\Gianluca\Documents\mbed\Heart\BUILD\Obj\cmsis_nvic.o
#        C:\Users\Gianluca\Documents\mbed\Heart\BUILD\Obj\cmsis_os1.o
#        C:\Users\Gianluca\Documents\mbed\Heart\BUILD\Obj\ConditionVariable.o
#        C:\Users\Gianluca\Documents\mbed\Heart\BUILD\Obj\ctr_drbg.o
#        C:\Users\Gianluca\Documents\mbed\Heart\BUILD\Obj\debug.o
#        C:\Users\Gianluca\Documents\mbed\Heart\BUILD\Obj\des.o
#        C:\Users\Gianluca\Documents\mbed\Heart\BUILD\Obj\DFUService.o
#        C:\Users\Gianluca\Documents\mbed\Heart\BUILD\Obj\dhm.o
#        C:\Users\Gianluca\Documents\mbed\Heart\BUILD\Obj\Dir.o
#        C:\Users\Gianluca\Documents\mbed\Heart\BUILD\Obj\DiscoveredCharacteristic.o
#        C:\Users\Gianluca\Documents\mbed\Heart\BUILD\Obj\ecdh.o
#        C:\Users\Gianluca\Documents\mbed\Heart\BUILD\Obj\ecdsa.o
#        C:\Users\Gianluca\Documents\mbed\Heart\BUILD\Obj\ecjpake.o
#        C:\Users\Gianluca\Documents\mbed\Heart\BUILD\Obj\ecp.o
#        C:\Users\Gianluca\Documents\mbed\Heart\BUILD\Obj\ecp_curves.o
#        C:\Users\Gianluca\Documents\mbed\Heart\BUILD\Obj\entropy.o
#        C:\Users\Gianluca\Documents\mbed\Heart\BUILD\Obj\entropy_poll.o
#        C:\Users\Gianluca\Documents\mbed\Heart\BUILD\Obj\equeue.o
#        C:\Users\Gianluca\Documents\mbed\Heart\BUILD\Obj\equeue_mbed.o
#        C:\Users\Gianluca\Documents\mbed\Heart\BUILD\Obj\equeue_posix.o
#        C:\Users\Gianluca\Documents\mbed\Heart\BUILD\Obj\error.o
#        C:\Users\Gianluca\Documents\mbed\Heart\BUILD\Obj\Ethernet.o
#        C:\Users\Gianluca\Documents\mbed\Heart\BUILD\Obj\EventFlags.o
#        C:\Users\Gianluca\Documents\mbed\Heart\BUILD\Obj\EventQueue.o
#        C:\Users\Gianluca\Documents\mbed\Heart\BUILD\Obj\FATFileSystem.o
#        C:\Users\Gianluca\Documents\mbed\Heart\BUILD\Obj\ff.o
#        C:\Users\Gianluca\Documents\mbed\Heart\BUILD\Obj\File.o
#        C:\Users\Gianluca\Documents\mbed\Heart\BUILD\Obj\FileBase.o
#        C:\Users\Gianluca\Documents\mbed\Heart\BUILD\Obj\FileHandle.o
#        C:\Users\Gianluca\Documents\mbed\Heart\BUILD\Obj\FilePath.o
#        C:\Users\Gianluca\Documents\mbed\Heart\BUILD\Obj\FileSystem.o
#        C:\Users\Gianluca\Documents\mbed\Heart\BUILD\Obj\FileSystemHandle.o
#        C:\Users\Gianluca\Documents\mbed\Heart\BUILD\Obj\FlashIAP.o
#        C:\Users\Gianluca\Documents\mbed\Heart\BUILD\Obj\GapScanningParams.o
#        C:\Users\Gianluca\Documents\mbed\Heart\BUILD\Obj\gcm.o
#        C:\Users\Gianluca\Documents\mbed\Heart\BUILD\Obj\GenericGattClient.o
#        C:\Users\Gianluca\Documents\mbed\Heart\BUILD\Obj\gpio_api.o
#        C:\Users\Gianluca\Documents\mbed\Heart\BUILD\Obj\greentea_metrics.o
#        C:\Users\Gianluca\Documents\mbed\Heart\BUILD\Obj\greentea_serial.o
#        C:\Users\Gianluca\Documents\mbed\Heart\BUILD\Obj\greentea_test_env.o
#        C:\Users\Gianluca\Documents\mbed\Heart\BUILD\Obj\havege.o
#        C:\Users\Gianluca\Documents\mbed\Heart\BUILD\Obj\HeapBlockDevice.o
#        C:\Users\Gianluca\Documents\mbed\Heart\BUILD\Obj\hmac_drbg.o
#        C:\Users\Gianluca\Documents\mbed\Heart\BUILD\Obj\I2C.o
#        C:\Users\Gianluca\Documents\mbed\Heart\BUILD\Obj\I2CSlave.o
#        C:\Users\Gianluca\Documents\mbed\Heart\BUILD\Obj\InterruptIn.o
#        C:\Users\Gianluca\Documents\mbed\Heart\BUILD\Obj\InterruptManager.o
#        C:\Users\Gianluca\Documents\mbed\Heart\BUILD\Obj\irq_cm0.o
#        C:\Users\Gianluca\Documents\mbed\Heart\Bluetooth_LE\library\libbluenrg1_stack.a
#        C:\Users\Gianluca\Documents\mbed\Heart\BUILD\Obj\LocalFileSystem.o
#        C:\Users\Gianluca\Documents\mbed\Heart\BUILD\Obj\main.o
#        C:\Users\Gianluca\Documents\mbed\Heart\BUILD\Obj\mbed-utest-shim.o
#        C:\Users\Gianluca\Documents\mbed\Heart\BUILD\Obj\mbed_alloc_wrappers.o
#        C:\Users\Gianluca\Documents\mbed\Heart\BUILD\Obj\mbed_application.o
#        C:\Users\Gianluca\Documents\mbed\Heart\BUILD\Obj\mbed_assert.o
#        C:\Users\Gianluca\Documents\mbed\Heart\BUILD\Obj\mbed_board.o
#        C:\Users\Gianluca\Documents\mbed\Heart\BUILD\Obj\mbed_boot.o
#        C:\Users\Gianluca\Documents\mbed\Heart\BUILD\Obj\mbed_critical.o
#        C:\Users\Gianluca\Documents\mbed\Heart\BUILD\Obj\mbed_error.o
#        C:\Users\Gianluca\Documents\mbed\Heart\BUILD\Obj\mbed_flash_api.o
#        C:\Users\Gianluca\Documents\mbed\Heart\BUILD\Obj\mbed_gpio.o
#        C:\Users\Gianluca\Documents\mbed\Heart\BUILD\Obj\mbed_interface.o
#        C:\Users\Gianluca\Documents\mbed\Heart\BUILD\Obj\mbed_lp_ticker_api.o
#        C:\Users\Gianluca\Documents\mbed\Heart\BUILD\Obj\mbed_mem_trace.o
#        C:\Users\Gianluca\Documents\mbed\Heart\BUILD\Obj\mbed_mktime.o
#        C:\Users\Gianluca\Documents\mbed\Heart\BUILD\Obj\mbed_overrides.o
#        C:\Users\Gianluca\Documents\mbed\Heart\BUILD\Obj\mbed_pinmap_common.o
#        C:\Users\Gianluca\Documents\mbed\Heart\BUILD\Obj\mbed_poll.o
#        C:\Users\Gianluca\Documents\mbed\Heart\BUILD\Obj\mbed_retarget.o
#        C:\Users\Gianluca\Documents\mbed\Heart\BUILD\Obj\mbed_rtc_time.o
#        C:\Users\Gianluca\Documents\mbed\Heart\BUILD\Obj\mbed_rtx_handlers.o
#        C:\Users\Gianluca\Documents\mbed\Heart\BUILD\Obj\mbed_rtx_idle.o
#        C:\Users\Gianluca\Documents\mbed\Heart\BUILD\Obj\mbed_sdk_boot.o
#        C:\Users\Gianluca\Documents\mbed\Heart\BUILD\Obj\mbed_semihost_api.o
#        C:\Users\Gianluca\Documents\mbed\Heart\BUILD\Obj\mbed_shared_queues.o
#        C:\Users\Gianluca\Documents\mbed\Heart\BUILD\Obj\mbed_sleep_manager.o
#        C:\Users\Gianluca\Documents\mbed\Heart\BUILD\Obj\mbed_stats.o
#        C:\Users\Gianluca\Documents\mbed\Heart\BUILD\Obj\mbed_ticker_api.o
#        C:\Users\Gianluca\Documents\mbed\Heart\BUILD\Obj\mbed_trng.o
#        C:\Users\Gianluca\Documents\mbed\Heart\BUILD\Obj\mbed_us_ticker_api.o
#        C:\Users\Gianluca\Documents\mbed\Heart\BUILD\Obj\mbed_wait_api_no_rtos.o
#        C:\Users\Gianluca\Documents\mbed\Heart\BUILD\Obj\mbed_wait_api_rtos.o
#        C:\Users\Gianluca\Documents\mbed\Heart\BUILD\Obj\MBRBlockDevice.o
#        C:\Users\Gianluca\Documents\mbed\Heart\BUILD\Obj\md.o
#        C:\Users\Gianluca\Documents\mbed\Heart\BUILD\Obj\md2.o
#        C:\Users\Gianluca\Documents\mbed\Heart\BUILD\Obj\md4.o
#        C:\Users\Gianluca\Documents\mbed\Heart\BUILD\Obj\md5.o
#        C:\Users\Gianluca\Documents\mbed\Heart\BUILD\Obj\md_wrap.o
#        C:\Users\Gianluca\Documents\mbed\Heart\BUILD\Obj\memory_buffer_alloc.o
#        C:\Users\Gianluca\Documents\mbed\Heart\BUILD\Obj\misc.o
#        C:\Users\Gianluca\Documents\mbed\Heart\BUILD\Obj\Mutex.o
#        C:\Users\Gianluca\Documents\mbed\Heart\BUILD\Obj\net_sockets.o
#        C:\Users\Gianluca\Documents\mbed\Heart\BUILD\Obj\NetworkInterface.o
#        C:\Users\Gianluca\Documents\mbed\Heart\BUILD\Obj\NetworkStack.o
#        C:\Users\Gianluca\Documents\mbed\Heart\BUILD\Obj\nsapi_dns.o
#        C:\Users\Gianluca\Documents\mbed\Heart\BUILD\Obj\oid.o
#        C:\Users\Gianluca\Documents\mbed\Heart\BUILD\Obj\OnboardCellularInterface.o
#        C:\Users\Gianluca\Documents\mbed\Heart\BUILD\Obj\os_systick.o
#        C:\Users\Gianluca\Documents\mbed\Heart\BUILD\Obj\os_tick_ptim.o
#        C:\Users\Gianluca\Documents\mbed\Heart\BUILD\Obj\osal.o
#        C:\Users\Gianluca\Documents\mbed\Heart\BUILD\Obj\padlock.o
#        C:\Users\Gianluca\Documents\mbed\Heart\BUILD\Obj\pem.o
#        C:\Users\Gianluca\Documents\mbed\Heart\BUILD\Obj\pin_device.o
#        C:\Users\Gianluca\Documents\mbed\Heart\BUILD\Obj\pinmap.o
#        C:\Users\Gianluca\Documents\mbed\Heart\BUILD\Obj\pk.o
#        C:\Users\Gianluca\Documents\mbed\Heart\BUILD\Obj\pk_wrap.o
#        C:\Users\Gianluca\Documents\mbed\Heart\BUILD\Obj\pkcs11.o
#        C:\Users\Gianluca\Documents\mbed\Heart\BUILD\Obj\pkcs12.o
#        C:\Users\Gianluca\Documents\mbed\Heart\BUILD\Obj\pkcs5.o
#        C:\Users\Gianluca\Documents\mbed\Heart\BUILD\Obj\pkparse.o
#        C:\Users\Gianluca\Documents\mbed\Heart\BUILD\Obj\pkwrite.o
#        C:\Users\Gianluca\Documents\mbed\Heart\BUILD\Obj\platform.o
#        C:\Users\Gianluca\Documents\mbed\Heart\BUILD\Obj\PPPCellularInterface.o
#        C:\Users\Gianluca\Documents\mbed\Heart\BUILD\Obj\ProfilingBlockDevice.o
#        C:\Users\Gianluca\Documents\mbed\Heart\BUILD\Obj\RawSerial.o
#        C:\Users\Gianluca\Documents\mbed\Heart\BUILD\Obj\ripemd160.o
#        C:\Users\Gianluca\Documents\mbed\Heart\BUILD\Obj\rsa.o
#        C:\Users\Gianluca\Documents\mbed\Heart\BUILD\Obj\rt_OsEventObserver.o
#        C:\Users\Gianluca\Documents\mbed\Heart\BUILD\Obj\RtosTimer.o
#        C:\Users\Gianluca\Documents\mbed\Heart\BUILD\Obj\RTX_Config.o
#        C:\Users\Gianluca\Documents\mbed\Heart\BUILD\Obj\rtx_delay.o
#        C:\Users\Gianluca\Documents\mbed\Heart\BUILD\Obj\rtx_evflags.o
#        C:\Users\Gianluca\Documents\mbed\Heart\BUILD\Obj\rtx_evr.o
#        C:\Users\Gianluca\Documents\mbed\Heart\BUILD\Obj\rtx_kernel.o
#        C:\Users\Gianluca\Documents\mbed\Heart\BUILD\Obj\rtx_lib.o
#        C:\Users\Gianluca\Documents\mbed\Heart\BUILD\Obj\rtx_memory.o
#        C:\Users\Gianluca\Documents\mbed\Heart\BUILD\Obj\rtx_mempool.o
#        C:\Users\Gianluca\Documents\mbed\Heart\BUILD\Obj\rtx_msgqueue.o
#        C:\Users\Gianluca\Documents\mbed\Heart\BUILD\Obj\rtx_mutex.o
#        C:\Users\Gianluca\Documents\mbed\Heart\BUILD\Obj\rtx_semaphore.o
#        C:\Users\Gianluca\Documents\mbed\Heart\BUILD\Obj\rtx_system.o
#        C:\Users\Gianluca\Documents\mbed\Heart\BUILD\Obj\rtx_thread.o
#        C:\Users\Gianluca\Documents\mbed\Heart\BUILD\Obj\rtx_timer.o
#        C:\Users\Gianluca\Documents\mbed\Heart\BUILD\Obj\Semaphore.o
#        C:\Users\Gianluca\Documents\mbed\Heart\BUILD\Obj\Serial.o
#        C:\Users\Gianluca\Documents\mbed\Heart\BUILD\Obj\serial_api.o
#        C:\Users\Gianluca\Documents\mbed\Heart\BUILD\Obj\SerialBase.o
#        C:\Users\Gianluca\Documents\mbed\Heart\BUILD\Obj\sha1.o
#        C:\Users\Gianluca\Documents\mbed\Heart\BUILD\Obj\sha256.o
#        C:\Users\Gianluca\Documents\mbed\Heart\BUILD\Obj\sha512.o
#        C:\Users\Gianluca\Documents\mbed\Heart\BUILD\Obj\SlicingBlockDevice.o
#        C:\Users\Gianluca\Documents\mbed\Heart\BUILD\Obj\Socket.o
#        C:\Users\Gianluca\Documents\mbed\Heart\BUILD\Obj\SocketAddress.o
#        C:\Users\Gianluca\Documents\mbed\Heart\BUILD\Obj\SPI.o
#        C:\Users\Gianluca\Documents\mbed\Heart\BUILD\Obj\spi_api.o
#        C:\Users\Gianluca\Documents\mbed\Heart\BUILD\Obj\SPISlave.o
#        C:\Users\Gianluca\Documents\mbed\Heart\BUILD\Obj\ssl_cache.o
#        C:\Users\Gianluca\Documents\mbed\Heart\BUILD\Obj\ssl_ciphersuites.o
#        C:\Users\Gianluca\Documents\mbed\Heart\BUILD\Obj\ssl_cli.o
#        C:\Users\Gianluca\Documents\mbed\Heart\BUILD\Obj\ssl_cookie.o
#        C:\Users\Gianluca\Documents\mbed\Heart\BUILD\Obj\ssl_srv.o
#        C:\Users\Gianluca\Documents\mbed\Heart\BUILD\Obj\ssl_ticket.o
#        C:\Users\Gianluca\Documents\mbed\Heart\BUILD\Obj\ssl_tls.o
#        C:\Users\Gianluca\Documents\mbed\Heart\BUILD\Obj\startup_bluenrg1.o
#        C:\Users\Gianluca\Documents\mbed\Heart\BUILD\Obj\Stream.o
#        C:\Users\Gianluca\Documents\mbed\Heart\BUILD\Obj\system_bluenrg1.o
#        C:\Users\Gianluca\Documents\mbed\Heart\BUILD\Obj\TCPServer.o
#        C:\Users\Gianluca\Documents\mbed\Heart\BUILD\Obj\TCPSocket.o
#        C:\Users\Gianluca\Documents\mbed\Heart\BUILD\Obj\Thread.o
#        C:\Users\Gianluca\Documents\mbed\Heart\BUILD\Obj\threading.o
#        C:\Users\Gianluca\Documents\mbed\Heart\BUILD\Obj\Ticker.o
#        C:\Users\Gianluca\Documents\mbed\Heart\BUILD\Obj\Timeout.o
#        C:\Users\Gianluca\Documents\mbed\Heart\BUILD\Obj\Timer.o
#        C:\Users\Gianluca\Documents\mbed\Heart\BUILD\Obj\TimerEvent.o
#        C:\Users\Gianluca\Documents\mbed\Heart\BUILD\Obj\timing.o
#        C:\Users\Gianluca\Documents\mbed\Heart\BUILD\Obj\UARTCellularInterface.o
#        C:\Users\Gianluca\Documents\mbed\Heart\BUILD\Obj\UARTSerial.o
#        C:\Users\Gianluca\Documents\mbed\Heart\BUILD\Obj\UARTService.o
#        C:\Users\Gianluca\Documents\mbed\Heart\BUILD\Obj\UDPSocket.o
#        C:\Users\Gianluca\Documents\mbed\Heart\BUILD\Obj\unity.o
#        C:\Users\Gianluca\Documents\mbed\Heart\BUILD\Obj\unity_handler.o
#        C:\Users\Gianluca\Documents\mbed\Heart\BUILD\Obj\URIBeaconConfigService.o
#        C:\Users\Gianluca\Documents\mbed\Heart\BUILD\Obj\us_ticker_api.o
#        C:\Users\Gianluca\Documents\mbed\Heart\BUILD\Obj\utest_case.o
#        C:\Users\Gianluca\Documents\mbed\Heart\BUILD\Obj\utest_default_handlers.o
#        C:\Users\Gianluca\Documents\mbed\Heart\BUILD\Obj\utest_greentea_handlers.o
#        C:\Users\Gianluca\Documents\mbed\Heart\BUILD\Obj\utest_harness.o
#        C:\Users\Gianluca\Documents\mbed\Heart\BUILD\Obj\utest_shim.o
#        C:\Users\Gianluca\Documents\mbed\Heart\BUILD\Obj\utest_stack_trace.o
#        C:\Users\Gianluca\Documents\mbed\Heart\BUILD\Obj\utest_types.o
#        C:\Users\Gianluca\Documents\mbed\Heart\BUILD\Obj\version.o
#        C:\Users\Gianluca\Documents\mbed\Heart\BUILD\Obj\version_features.o
#        C:\Users\Gianluca\Documents\mbed\Heart\BUILD\Obj\WiFiAccessPoint.o
#        C:\Users\Gianluca\Documents\mbed\Heart\BUILD\Obj\x509.o
#        C:\Users\Gianluca\Documents\mbed\Heart\BUILD\Obj\x509_create.o
#        C:\Users\Gianluca\Documents\mbed\Heart\BUILD\Obj\x509_crl.o
#        C:\Users\Gianluca\Documents\mbed\Heart\BUILD\Obj\x509_crt.o
#        C:\Users\Gianluca\Documents\mbed\Heart\BUILD\Obj\x509_csr.o
#        C:\Users\Gianluca\Documents\mbed\Heart\BUILD\Obj\x509write_crt.o
#        C:\Users\Gianluca\Documents\mbed\Heart\BUILD\Obj\x509write_csr.o
#        C:\Users\Gianluca\Documents\mbed\Heart\BUILD\Obj\xtea.o -o
#        C:\Users\Gianluca\Documents\mbed\Heart\BUILD\Exe\name.out --redirect
#        _Printf=_PrintfLarge --redirect _Scanf=_ScanfFull --map
#        C:\Users\Gianluca\Documents\mbed\Heart\BUILD\List\name.map --config
#        C:\Users\Gianluca\Documents\mbed\Heart\.\mbed-os\targets\TARGET_STMBLUE\TARGET_BLUENRG1\TARGET_STEVAL_IDB007V1\device\TOOLCHAIN_IAR\BLUENRG1.icf
#        --skip_dynamic_initialization --threaded_lib --entry
#        __iar_program_start --no_exceptions --vfe
#
###############################################################################

*******************************************************************************
*** RUNTIME MODEL ATTRIBUTES
***

CppFlavor                     = *
__CPP_Exceptions              = Disabled
__CPP_Language                = C++
__Heap_Handler                = DLMalloc
__SystemLibrary               = DLib
__dlib_dynamic_initialization = postponed
__dlib_has_iterator_debugging = 0
__dlib_jmp_buf_num_elements   = 8


*******************************************************************************
*** PLACEMENT SUMMARY
***

"A0":  place at start of [0x10067000-0x10067fff] {
          block BLOCK_STACKLIB_FLASH_DATA };
"A1":  place at 0x200000c0 { block BLUE };
"A3":  place at start of [0x10040000-0x10066fff] { ro section .intvec };
"A4":  place at 0x20000004 { block ota_sw_activation_block };
"A5":  place at 0x20000008 { block savedMSP_block };
"A6":  place at 0x2000000c { block wakeupFromSleepFlag_block };
"A7":  place at 0x20000010 { block app_base_block };
"A8":  place at 0x20000030 { block Blue_Flag_Ram_block };
"P2":  place in [from 0x10040000 to 0x10066fff] { ro };
"P3":  place in [from 0x200000c0 to 0x20005fff] { rw };
"A10": place at end of [0x200000c0-0x20005fff] { block CSTACK, block HEAP };
initialize by copy { rw };
 { section .bss.__blue_RAM };
 { section .intvec };
 { section .ota_sw_activation };
 { section .savedMSP };
 { section .wakeupFromSleepFlag };
 { section .app_base };
 { section .__blueflag_RAM };

  Section                 Kind        Address     Size  Object
  -------                 ----        -------     ----  ------
"A3":                                             0xc0
  .intvec                 ro code  0x10040000     0xc0  startup_bluenrg1.o [1]
                                 - 0x100400c0     0xc0

"P2":                                          0x1bc6c
  i.RAL_Isr               ro code  0x100400c0   0x1714  ll_isr.o [5]
  i.Timer_ExpiryCallback  ro code  0x100417d4     0x14  host_timer.o [5]
  i.Is_Flash_Write_On_Going
                          ro code  0x100417e8     0x10  nvm.o [5]
  i.advance_wakeup_timer  ro code  0x100417f8    0x4d4  advance_wakeup_time.o [5]
  i.get_scan_addr         ro code  0x10041ccc     0x2e  rom_ll_isr_routines.o [5]
  .text                   ro code  0x10041cfa      0xa  BlueNRG1Gap.o [1]
  i.PRIV_u32ProcessAdvPacket
                          ro code  0x10041d04    0x698  ll_privacy.o [5]
  i.get_adv_addr          ro code  0x1004239c     0x2c  rom_ll_isr_routines.o [5]
  i.PRIV_SearchAddrInWhiteList
                          ro code  0x100423c8     0x48  ll_privacy.o [5]
  i.go_to_connect         ro code  0x10042410    0x278  rom_ll_isr_routines.o [5]
  i.cancel_current_master
                          ro code  0x10042688    0x19c  multi_master_time.o [5]
  i.machine_time_trans    ro code  0x10042824     0x20  rom_ll_timehandling.o [5]
  i.unpack_update_request
                          ro code  0x10042844     0x46  rom_ll_isr_routines.o [5]
  i.unpack_channel_map    ro code  0x1004288a     0x38  rom_ll_isr_routines.o [5]
  i.char_copy             ro code  0x100428c2     0x12  hal.o [5]
  i.LL_receive_data_patch
                          ro code  0x100428d4     0xc4  isr_routines.o [5]
  i.isr_postproc1         ro code  0x10042998    0x14c  rom_ll_isr_postproc.o [5]
  i.LL_update_proc        ro code  0x10042ae4     0x58  rom_ll_isr_routines.o [5]
  i.modulo_37             ro code  0x10042b3c     0x18  rom_ll_routines_support.o [5]
  i.advance_slave_timing_MultiSlave
                          ro code  0x10042b54    0x438  multi_master_time.o [5]
  i.set_string            ro code  0x10042f8c     0x10  hal.o [5]
  i.go_to_connect_master  ro code  0x10042f9c    0x198  isr_routines.o [5]
  i.system_time_trans     ro code  0x10043134      0xa  rom_ll_timehandling.o [5]
  i.isr_postproc_encrypt_data
                          ro code  0x1004313e     0x16  rom_ll_isr_postproc.o [5]
  i.anchor_replace        ro code  0x10043154     0x50  multi_master_time.o [5]
  i.read_rssi             ro code  0x100431a4     0x70  ll_routines.o [5]
  i.isr_event_handler_patched
                          ro code  0x10043214    0x8bc  ll_routines_master.o [5]
  i.isr_postproc          ro code  0x10043ad0    0x14c  isr_postproc.o [5]
  i.cancel_master         ro code  0x10043c1c    0x100  rom_ll_isr_routines.o [5]
  .text                   ro code  0x10043d1c     0xe0  I32DivModFast.o [7]
  i.cancel_slave          ro code  0x10043dfc     0x98  isr_routines.o [5]
  i.Hal_Get_Random_Number
                          ro code  0x10043e94     0x28  hal.o [5]
  i.LL_Sleep_Req          ro code  0x10043ebc     0x54  rom_ll_routines_support.o [5]
  i.LL_Update_Advertising_Buffers
                          ro code  0x10043f10     0x44  rom_ll_ll_routines.o [5]
  i.LL_Update_Scanning_Initiating_Buffers
                          ro code  0x10043f54     0x40  rom_ll_ll_routines.o [5]
  .text                   ro code  0x10043f94     0x16  uread4.o [7]
  .text                   ro code  0x10043faa      0xa  EventQueue.o [1]
  i.PRIV_u8ResolvePrivateAddress
                          ro code  0x10043fb4     0xf0  ll_privacy.o [5]
  .text                   ro code  0x100440a4     0x28  osal.o [1]
  i.timebase_start_connect
                          ro code  0x100440cc     0x40  multi_master_time.o [5]
  i.is_slave              ro code  0x1004410c     0x34  multi_master_time.o [5]
  i.swap_char             ro code  0x10044140      0xa  multi_master_time.o [5]
  i.swap_short_int        ro code  0x1004414a      0xa  multi_master_time.o [5]
  i.set_sca               ro code  0x10044154     0x20  rom_ll_timehandling.o [5]
  i.WindowWiden1          ro code  0x10044174      0xa  rom_ll_timehandling.o [5]
  i.time_offset1          ro code  0x1004417e      0xe  rom_ll_timehandling.o [5]
  i.WindowWiden2          ro code  0x1004418c     0x10  rom_ll_timehandling.o [5]
  i.time_offset2          ro code  0x1004419c     0x10  rom_ll_timehandling.o [5]
  i.microseconds_to_machine_time
                          ro code  0x100441ac      0x8  routines_support.o [5]
  i.system_time_trans_ext
                          ro code  0x100441b4     0x2c  rom_ll_timehandling.o [5]
  i.encrypt               ro code  0x100441e0     0x88  rom_ll_routines_support.o [5]
  i.hci_le_enhanced_connection_complete_event_push
                          ro code  0x10044268     0x90  ll_routines_master.o [5]
  i.hci_le_connection_complete_event_push
                          ro code  0x100442f8     0x78  ll_routines_master.o [5]
  i.hci_encryption_key_refresh_complete_event_push
                          ro code  0x10044370     0x48  ll_routines_master.o [5]
  i.hci_encryption_change_event_push
                          ro code  0x100443b8     0x4c  ll_routines_master.o [5]
  i.Acl_Tx_Cmpl_Pkt_Handler
                          ro code  0x10044404     0x1e  acl.o [5]
  .text                   ro code  0x10044422      0xa  utest_shim.o [1]
  i.aci_event_fifo_push_header
                          ro code  0x1004442c     0xc8  aci_events.o [5]
  i.aci_event_fifo_push   ro code  0x100444f4     0x28  aci_events.o [5]
  i.hci_le_connection_update_complete_event_push
                          ro code  0x1004451c     0x58  ll_routines_master.o [5]
  i.hci_le_direct_advertising_report_event_push
                          ro code  0x10044574     0x74  ll_routines_master.o [5]
  i.hci_le_advertising_report_event_push
                          ro code  0x100445e8     0x80  ll_routines_master.o [5]
  i.Reclassify_All_Channels
                          ro code  0x10044668     0xc0  ll_routines_master.o [5]
  i.Acl_Rcv_Pkt_Handler   ro code  0x10044728     0x1e  acl.o [5]
  i.Hal_Get_Random_Number32
                          ro code  0x10044746     0x12  hal.o [5]
  .text                   ro code  0x10044758      0x2  IntDivZer.o [7]
  .text                   ro code  0x1004475a      0x2  EventQueue.o [1]
  i.PRIVWHIT_u8SearchAddrInList
                          ro code  0x1004475c     0xa0  ll_privacy.o [5]
  i.LL_Encrypt_Plain_Data
                          ro code  0x100447fc     0x54  ll_routines_support.o [5]
  i.PRIVWHIT_u8AddAddrInList
                          ro code  0x10044850    0x1d8  ll_privacy.o [5]
  i.PRIVWHIT_u8RemoveAddrInList
                          ro code  0x10044a28     0xc8  ll_privacy.o [5]
  .text                   ro code  0x10044af0     0x5c  ABImemcpy.o [7]
  .text                   ro code  0x10044b4c     0x58  ABImemset.o [7]
  .text                   ro code  0x10044ba4     0x28  memcmp.o [7]
  i.fifoBuf_getFreeHeader
                          ro code  0x10044bcc     0x6a  aci_events.o [5]
  i.AES128ECB_Wrapper     ro code  0x10044c36     0x7e  aes128cmac.o [5]
  i.AES_keyschedule_enc   ro code  0x10044cb4     0x36  crypto.o [5]
  .text                   ro code  0x10044cea      0x2  GenericGattClient.o [1]
  i.AES_general_SW_enc    ro code  0x10044cec    0x268  crypto.o [5]
  i.AES_keyschedule_enc_LL
                          ro code  0x10044f54    0x15c  crypto.o [5]
  .text                   ro code  0x100450b0   0x16b8  dlmalloc.o [3]
  .text                   ro code  0x10046768      0xa  abort.o [3]
  .text                   ro code  0x10046772      0x2  startup_bluenrg1.o [1]
  .text                   ro code  0x10046774     0x2c  xgetmemchunk.o [3]
  .text                   ro code  0x100467a0     0x3c  xsyslock.o [3]
  .text                   ro code  0x100467dc      0xc  XXexit.o [7]
  .text                   ro code  0x100467e8    0x164  xsyslock_mtx.o [3]
  .text                   ro code  0x1004694c    0x23a  mbed_boot.o [1]
  .text                   ro code  0x10046b86      0x2  startup_bluenrg1.o [1]
  .text                   ro code  0x10046b88    0x894  rtx_thread.o [1]
  .text                   ro code  0x1004741c     0x28  mbed_error.o [1]
  .text                   ro code  0x10047444    0x348  rtx_kernel.o [1]
  .text                   ro code  0x1004778c    0x420  rtx_mutex.o [1]
  .text                   ro code  0x10047bac     0x1c  dynamic_init.o [7]
  .text                   ro code  0x10047bc8    0x33a  main.o [1]
  .text                   ro code  0x10047f02      0x4  low_level_init.o [3]
  .text                   ro code  0x10047f06      0x2  startup_bluenrg1.o [1]
  .text                   ro code  0x10047f08     0x28  data_init.o [7]
  .text                   ro code  0x10047f30      0x2  mbed_overrides.o [1]
  .text                   ro code  0x10047f32      0x2  rtx_evr.o [1]
  .text                   ro code  0x10047f34      0x2  rtx_evr.o [1]
  .text                   ro code  0x10047f36      0x2  rtx_evr.o [1]
  .text                   ro code  0x10047f38      0x2  rtx_evr.o [1]
  .text                   ro code  0x10047f3a      0x2  rtx_evr.o [1]
  .text                   ro code  0x10047f3c      0x2  rtx_evr.o [1]
  .text                   ro code  0x10047f3e      0x2  rtx_evr.o [1]
  .text                   ro code  0x10047f40      0x2  rtx_evr.o [1]
  .text                   ro code  0x10047f42      0x2  rtx_evr.o [1]
  .text                   ro code  0x10047f44      0x2  rtx_evr.o [1]
  .text                   ro code  0x10047f46      0x2  rtx_evr.o [1]
  .text                   ro code  0x10047f48      0x2  rtx_evr.o [1]
  .text                   ro code  0x10047f4a      0x2  startup_bluenrg1.o [1]
  .text                   ro code  0x10047f4c    0x36c  mbed_rtx_handlers.o [1]
  .text                   ro code  0x100482b8     0xcc  rtx_mempool.o [1]
  .text                   ro code  0x10048384     0x70  rtx_memory.o [1]
  .text                   ro code  0x100483f4     0x4e  rtx_memory.o [1]
  .text                   ro code  0x10048442      0x2  rtx_evr.o [1]
  .text                   ro code  0x10048444      0x2  rtx_evr.o [1]
  .text                   ro code  0x10048446      0x2  rtx_evr.o [1]
  .text                   ro code  0x10048448      0x2  rtx_evr.o [1]
  .text                   ro code  0x1004844a      0x2  rtx_evr.o [1]
  .text                   ro code  0x1004844c      0x2  rtx_evr.o [1]
  .text                   ro code  0x1004844e      0x2  startup_bluenrg1.o [1]
  .text                   ro code  0x10048450     0x64  mbed_board.o [1]
  .text                   ro code  0x100484b4    0x234  mbed_retarget.o [1]
  .text                   ro code  0x100486e8     0x3e  rtx_memory.o [1]
  .text                   ro code  0x10048726      0x2  rtx_evr.o [1]
  .text                   ro code  0x10048728      0x2  rtx_evr.o [1]
  .text                   ro code  0x1004872a      0x2  startup_bluenrg1.o [1]
  .text                   ro code  0x1004872c     0x4c  os_systick.o [1]
  .text                   ro code  0x10048778      0x6  os_systick.o [1]
  .text                   ro code  0x1004877e      0x2  startup_bluenrg1.o [1]
  .text                   ro code  0x10048780     0x30  os_systick.o [1]
  .text                   ro code  0x100487b0      0x2  rtx_evr.o [1]
  .text                   ro code  0x100487b2      0x2  rtx_evr.o [1]
  .text                   ro code  0x100487b4      0x2  rtx_evr.o [1]
  .text                   ro code  0x100487b6      0x2  rtx_evr.o [1]
  .text                   ro code  0x100487b8      0x2  rtx_evr.o [1]
  .text                   ro code  0x100487ba      0x2  rtx_evr.o [1]
  .text                   ro code  0x100487bc      0x2  rtx_evr.o [1]
  .text                   ro code  0x100487be      0x2  rtx_evr.o [1]
  .text                   ro code  0x100487c0      0x2  rtx_evr.o [1]
  .text                   ro code  0x100487c2      0x2  rtx_evr.o [1]
  .text                   ro code  0x100487c4      0x2  rtx_evr.o [1]
  .text                   ro code  0x100487c6      0x2  rtx_evr.o [1]
  .text                   ro code  0x100487c8      0x2  rtx_evr.o [1]
  .text                   ro code  0x100487ca      0x2  startup_bluenrg1.o [1]
  .text                   ro code  0x100487cc     0xa4  cppinit.o [3]
  .text                   ro code  0x10048870     0x9c  mbed_gpio.o [1]
  .text                   ro code  0x1004890c     0x46  EventQueue.o [1]
  .text                   ro code  0x10048952     0x68  cxxabi.o [4]
  .text                   ro code  0x100489ba      0x2  startup_bluenrg1.o [1]
  .text                   ro code  0x100489bc    0x180  BLE.o [1]
  .text                   ro code  0x10048b3c     0x1a  main.o [1]
  .text                   ro code  0x10048b56      0x2  startup_bluenrg1.o [1]
  .text                   ro code  0x10048b58     0x20  main.o [1]
  .text                   ro code  0x10048b78     0x16  main.o [1]
  .text                   ro code  0x10048b8e      0x2  startup_bluenrg1.o [1]
  .text                   ro code  0x10048b90     0xd8  main.o [1]
  .text                   ro code  0x10048c68     0x30  main.o [1]
  .text                   ro code  0x10048c98     0x4c  main.o [1]
  .text                   ro code  0x10048ce4     0x24  printf.o [3]
  .text                   ro code  0x10048d08     0x66  mbed_wait_api_rtos.o [1]
  .text                   ro code  0x10048d6e      0x2  startup_bluenrg1.o [1]
  .text                   ro code  0x10048d70     0x8c  gpio_api.o [1]
  .text                   ro code  0x10048dfc     0x1e  main.o [1]
  .text                   ro code  0x10048e1a      0x2  startup_bluenrg1.o [1]
  .text                   ro code  0x10048e1c     0x24  mbed_rtx_idle.o [1]
  .text                   ro code  0x10048e40     0x1c  Thread.o [1]
  .text                   ro code  0x10048e5c      0x2  rtx_evr.o [1]
  .text                   ro code  0x10048e5e      0x2  rtx_evr.o [1]
  .text                   ro code  0x10048e60      0x2  rtx_evr.o [1]
  .text                   ro code  0x10048e62      0x2  rtx_evr.o [1]
  .text                   ro code  0x10048e64      0x2  rtx_evr.o [1]
  .text                   ro code  0x10048e66      0x2  utest_shim.o [1]
  .text                   ro code  0x10048e68     0x74  mbed_critical.o [1]
  .text                   ro code  0x10048edc     0x3c  vsnprint.o [3]
  .text                   ro code  0x10048f18     0xdc  serial_api.o [1]
  .text                   ro code  0x10048ff4     0x40  mbed_critical.o [1]
  .text                   ro code  0x10049034     0x10  errno.o [3]
  .text                   ro code  0x10049044     0x64  FilePath.o [1]
  .text                   ro code  0x100490a8     0xf4  mbed_board.o [1]
  .text                   ro code  0x1004919c      0x2  rtx_evr.o [1]
  i.hci_data_buffer_overflow_event_cb
                          ro code  0x1004919e      0x2  aci_events.o [5]
  .text                   ro code  0x100491a0     0x30  EventQueue.o [1]
  .text                   ro code  0x100491d0     0xd4  equeue.o [1]
  .text                   ro code  0x100492a4     0x16  BLE.o [1]
  .text                   ro code  0x100492bc     0x24  BLE.o [1]
  .text                   ro code  0x100492e0     0x9c  BlueNRG1Device.o [1]
  .text                   ro code  0x1004937c     0x2a  cxxabiguard.o [4]
  .text                   ro code  0x100493a6     0x42  main.o [1]
  .text                   ro code  0x100493e8     0x1a  main.o [1]
  .text                   ro code  0x10049402     0xc6  main.o [1]
  .text                   ro code  0x100494c8     0x50  main.o [1]
  .text                   ro code  0x10049518   0x10de  xprintflarge.o [3]
  .text                   ro code  0x1004a5f6     0xb0  FltMul.o [6]
  .text                   ro code  0x1004a6a8     0x3a  FltToS32.o [6]
  .text                   ro code  0x1004a6e4      0xc  mbed_us_ticker_api.o [1]
  .text                   ro code  0x1004a6f0    0x3a8  mbed_ticker_api.o [1]
  .text                   ro code  0x1004aa98      0x4  mbed_sleep_manager.o [1]
  .text                   ro code  0x1004aa9c     0xca  BlueNRG1_gpio.o [1]
  .text                   ro code  0x1004ab68     0x18  BlueNRG1_sysCtrl.o [1]
  .text                   ro code  0x1004ab80      0xc  pin_device.o [1]
  .text                   ro code  0x1004ab8c     0x4c  rtx_delay.o [1]
  .text                   ro code  0x1004abd8     0x54  mbed_assert.o [1]
  .text                   ro code  0x1004ac2c    0x1c8  BlueNRG1_uart.o [1]
  .text                   ro code  0x1004adf4      0x2  xtls.o [3]
  .text                   ro code  0x1004adf8     0x60  FileBase.o [1]
  .text                   ro code  0x1004ae58    0x12e  equeue_mbed.o [1]
  .text                   ro code  0x1004af86     0x14  memset.o [3]
  .text                   ro code  0x1004af9a     0x10  BLEInstanceBase.o [1]
  .text                   ro code  0x1004afac    0xa20  btle.o [1]
  .text                   ro code  0x1004b9cc     0x3c  btle.o [1]
  .text                   ro code  0x1004ba08     0x3c  btle.o [1]
  .text                   ro code  0x1004ba44     0x2e  main.o [1]
  .text                   ro code  0x1004ba74     0x20  main.o [1]
  .text                   ro code  0x1004ba94     0x20  main.o [1]
  .text                   ro code  0x1004bab4     0x1c  xmbtowc.o [3]
  .text                   ro code  0x1004bad0     0x14  strchr.o [7]
  .text                   ro code  0x1004bae4     0x10  strlen.o [7]
  .text                   ro code  0x1004baf4     0x18  memchr.o [7]
  .text                   ro code  0x1004bb0c      0xa  xmbcurmax.o [3]
  .text                   ro code  0x1004bb16     0x18  xwctomb.o [3]
  .text                   ro code  0x1004bb2e     0x6a  I64DivMod.o [7]
  .text                   ro code  0x1004bb98    0x184  DblMul.o [6]
  .text                   ro code  0x1004bd1c     0x32  DblCmpLe.o [6]
  .text                   ro code  0x1004bd4e     0xc2  DblDiv.o [6]
  .text                   ro code  0x1004be10     0x52  DblToI32.o [6]
  .text                   ro code  0x1004be64     0x34  I32ToDbl.o [6]
  .text                   ro code  0x1004be98    0x1b4  DblAddSub.o [6]
  .text                   ro code  0x1004c04c     0x68  localeconv.o [3]
  .text                   ro code  0x1004c0b4     0x20  div.o [3]
  .text                   ro code  0x1004c0d4     0x22  I64Shl.o [7]
  .text                   ro code  0x1004c0f8     0x32  I64Mul.o [7]
  .text                   ro code  0x1004c12a      0x2  rtx_evr.o [1]
  .text                   ro code  0x1004c12c     0x50  SPI.o [1]
  .text                   ro code  0x1004c17c     0xd4  Mutex.o [1]
  .text                   ro code  0x1004c250     0x2c  strncmp.o [3]
  .text                   ro code  0x1004c27c     0xdc  Timer.o [1]
  .text                   ro code  0x1004c358     0x72  TimerEvent.o [1]
  .text                   ro code  0x1004c3cc     0x30  utest_shim.o [1]
  .text                   ro code  0x1004c3fc     0xc8  Ticker.o [1]
  .text                   ro code  0x1004c4c4    0x214  rtx_evflags.o [1]
  i.BlueNRG_Stack_Initialization
                          ro code  0x1004c6d8     0x30  bluenrg_main_func.o [5]
  i.aci_hal_set_tx_power_level
                          ro code  0x1004c708      0x8  bluenrg_hal_aci.o [5]
  i.aci_gatt_init         ro code  0x1004c710      0x8  bluenrg_gatt_aci.o [5]
  i.aci_gap_init          ro code  0x1004c718     0x30  bluenrg_gap_aci.o [5]
  i.aci_hal_read_config_data
                          ro code  0x1004c748      0x8  bluenrg_hal_aci.o [5]
  i.aci_gap_set_authentication_requirement
                          ro code  0x1004c750     0x7c  bluenrg_gap_aci.o [5]
  .text                   ro code  0x1004c7cc     0x24  BlueNRG1_ble.o [1]
  .text                   ro code  0x1004c7f0    0xc40  BlueNRG1GattServer.o [1]
  .text                   ro code  0x1004d430    0xd04  BlueNRG1Gap.o [1]
  .text                   ro code  0x1004e134     0x3c  btle.o [1]
  .text                   ro code  0x1004e170    0x67c  BlueNRG1GattClient.o [1]
  .text                   ro code  0x1004e7ec     0x3e  btle.o [1]
  i.aci_gatt_write_resp   ro code  0x1004e82a     0x1c  bluenrg_gatt_aci.o [5]
  i.aci_l2cap_connection_parameter_update_resp
                          ro code  0x1004e846     0x2a  bluenrg_l2cap_aci.o [5]
  .text                   ro code  0x1004e870     0xfc  BlueNRG1Device.o [1]
  .text                   ro code  0x1004e96c     0x74  btle.o [1]
  .text                   ro code  0x1004e9e0     0x14  setlocale.o [3]
  .text                   ro code  0x1004e9f4     0x50  xencoding_sb.o [3]
  .text                   ro code  0x1004ea44      0x2  I64DivZer.o [7]
  .text                   ro code  0x1004ea46     0x18  Ticker.o [1]
  .text                   ro code  0x1004ea5e      0x2  rtx_evr.o [1]
  .text                   ro code  0x1004ea60      0x2  rtx_evr.o [1]
  .text                   ro code  0x1004ea62      0x2  rtx_evr.o [1]
  .text                   ro code  0x1004ea64      0x2  rtx_evr.o [1]
  .text                   ro code  0x1004ea66      0x2  rtx_evr.o [1]
  i.BlueNRG_Stack_Initialize_RAM_check
                          ro code  0x1004ea68     0x64  bluenrg_main_func.o [5]
  i._BlueNRG_Stack_Initialization
                          ro code  0x1004eacc     0x94  bluenrg_main_func.o [5]
  i.HAL_Set_TX_Power_Level
                          ro code  0x1004eb60     0x44  hal.o [5]
  i.Gatt_Server_Init      ro code  0x1004eba4    0x190  gatt_server.o [5]
  i.GAP_Init              ro code  0x1004ed34    0x1f8  gap.o [5]
  i.HAL_Read_ConfigData   ro code  0x1004ef2c     0x74  hal.o [5]
  i.SM_Set_Authentication_req
                          ro code  0x1004efa0     0x80  sm_common.o [5]
  i.aci_gatt_add_service  ro code  0x1004f020     0x36  bluenrg_gatt_aci.o [5]
  i.aci_gatt_add_char     ro code  0x1004f056     0x3e  bluenrg_gatt_aci.o [5]
  .text                   ro code  0x1004f094     0xae  BlueNRG1GattServer.o [1]
  i.aci_gatt_add_char_desc
                          ro code  0x1004f142     0x50  bluenrg_gatt_aci.o [5]
  .text                   ro code  0x1004f192     0x30  BlueNRG1GattServer.o [1]
  i.aci_gatt_update_char_value
                          ro code  0x1004f1c2     0x14  bluenrg_gatt_aci.o [5]
  i.aci_gatt_set_desc_value
                          ro code  0x1004f1d6     0x1c  bluenrg_gatt_aci.o [5]
  i.aci_gatt_allow_read   ro code  0x1004f1f2      0xc  bluenrg_gatt_aci.o [5]
  .text                   ro code  0x1004f1fe     0xda  ble_utils.o [1]
  i.hci_le_set_scan_response_data
                          ro code  0x1004f2d8     0x16  hci.o [5]
  i.hci_le_set_advertising_data
                          ro code  0x1004f2ee     0x16  hci.o [5]
  i.aci_gap_configure_whitelist
                          ro code  0x1004f304      0xe  bluenrg_gap_aci.o [5]
  i.hci_le_set_advertising_parameters
                          ro code  0x1004f314     0xc0  hci.o [5]
  i.hci_le_set_advertise_enable
                          ro code  0x1004f3d4     0x14  hci.o [5]
  .text                   ro code  0x1004f3e8     0x1e  I32ToFlt.o [6]
  .text                   ro code  0x1004f408     0x80  BlueNRG1Gap.o [1]
  i.aci_hal_write_config_data
                          ro code  0x1004f488      0x8  bluenrg_hal_aci.o [5]
  i.hci_le_set_random_address
                          ro code  0x1004f490     0x54  hci.o [5]
  i.aci_gap_create_connection
                          ro code  0x1004f4e4     0x5a  bluenrg_gap_aci.o [5]
  .text                   ro code  0x1004f540     0x58  btle.o [1]
  .text                   ro code  0x1004f598     0x2a  BlueNRG1GattClient.o [1]
  .text                   ro code  0x1004f5c4     0xec  BlueNRG1GattClient.o [1]
  .text                   ro code  0x1004f6b0     0x30  assert.o [3]
  .text                   ro code  0x1004f6e0    0xf74  BlueNRG1GattConnectionClient.o [1]
  i.Gatt_Appl_Auth_For_Write
                          ro code  0x10050654    0x1e8  gatt_server.o [5]
  i.L2C_Build_Connect_Update_Resp
                          ro code  0x1005083c     0xae  l2cap.o [5]
  .text                   ro code  0x100508ea     0x18  btle.o [1]
  .text                   ro code  0x10050904     0x60  GapScanningParams.o [1]
  .text                   ro code  0x10050964     0x20  btle.o [1]
  .text                   ro code  0x10050984     0x20  btle.o [1]
  .text                   ro code  0x100509a4     0x10  BlueNRG1Device.o [1]
  .text                   ro code  0x100509b4     0x2c  btle.o [1]
  .text                   ro code  0x100509e0     0x20  btle.o [1]
  .text                   ro code  0x10050a00     0x40  btle.o [1]
  i.Dynamic_allocator     ro code  0x10050a40    0x270  mem_alloc.o [5]
  i.Dynamic_allocator_noRet
                          ro code  0x10050cb0      0x2  mem_alloc.o [5]
  i.BlueNRG_Stack_Initialize_RAM
                          ro code  0x10050cb4     0x2c  bluenrg_main_func.o [5]
  .text                   ro code  0x10050ce0     0x16  BlueNRG1_pka.o [1]
  i.BlueNRG_Stack_Initialize_ConfigData
                          ro code  0x10050cf8     0x48  bluenrg_main_func.o [5]
  i.BlueNRG_Stack_Initialize_Layers
                          ro code  0x10050d40     0x8c  bluenrg_main_func.o [5]
  i.PRIVWHIT_vInit_Struct
                          ro code  0x10050dcc     0x78  ll_privacy.o [5]
  i.BlueNRG_Stack_Perform_Crystal_Check
                          ro code  0x10050e44     0xb8  bluenrg_main_func.o [5]
  i.acl_list_init         ro code  0x10050efc     0x12  acl_list.o [5]
  i.List_Circular_Insert_Tail
                          ro code  0x10050f0e      0xe  rom_list.o [5]
  i.GATT_Server_Set_Flag  ro code  0x10050f1c     0x14  gatt_server.o [5]
  i.Gatt_Add_Service      ro code  0x10050f30    0x150  gatt_server.o [5]
  i.Gatt_Add_Characteristic
                          ro code  0x10051080    0x330  gatt_server.o [5]
  i.Gatt_Update_Charac_Value
                          ro code  0x100513b0     0x64  gatt_server.o [5]
  i.IDD_Initialize_Device_IDs
                          ro code  0x10051414    0x12c  device_id_data.o [5]
  i.Get_StaticRandAddr    ro code  0x10051540     0x14  rom_gap_rom.o [5]
  i.LL_LE_Set_Resolvable_Private_Address_Timeout
                          ro code  0x10051554     0x1c  ll_privacy.o [5]
  i.hci_le_set_event_mask
                          ro code  0x10051570     0x24  hci.o [5]
  i.LL_SetAddressResolutionEnable
                          ro code  0x10051594      0x8  routines_support.o [5]
  i._load_uuid            ro code  0x1005159c     0x26  bluenrg_gatt_aci.o [5]
  .text                   ro code  0x100515c4    0x110  BlueNRG1GattServer.o [1]
  i.Gatt_Add_Charac_Desc  ro code  0x100516d4    0x15c  gatt_server.o [5]
  i.Gatt_Set_Desc_Value   ro code  0x10051830    0x104  gatt_server.o [5]
  i.Gatt_Appl_Auth_For_Read
                          ro code  0x10051934     0xfc  gatt_server.o [5]
  i.LL_Set_Scan_Resp_Data
                          ro code  0x10051a30     0x60  rom_ll_ll_routines.o [5]
  i.LL_Set_Adv_Data       ro code  0x10051a90     0x74  rom_ll_ll_routines.o [5]
  i.SM_Configure_WhiteList
                          ro code  0x10051b04     0x90  rom_sdb.o [5]
  i.Get_Random_Addr       ro code  0x10051b94     0x18  hci.o [5]
  i.Is_Address_Initialized
                          ro code  0x10051bac     0x16  rom_ll_ll_routines.o [5]
  i.LL_Set_Adv_Params     ro code  0x10051bc4    0x2ec  rom_ll_ll_routines.o [5]
  i.LL_Enable_Disable_Adv
                          ro code  0x10051eb0    0x1cc  rom_ll_ll_routines.o [5]
  .text                   ro code  0x1005207c     0x3c  FltToU64.o [6]
  i.HAL_Write_ConfigData  ro code  0x100520b8     0x68  hal.o [5]
  i.get_scan_connection   ro code  0x10052120     0x48  multi_master_time.o [5]
  i.get_advertiser        ro code  0x10052168     0x48  multi_master_time.o [5]
  i.hci_load_connParams   ro code  0x100521b0     0x64  hci.o [5]
  i.GAP_Create_Connection
                          ro code  0x10052214     0x64  gap.o [5]
  .text                   ro code  0x10052278     0x20  GenericGattClient.o [1]
  .text                   ro code  0x10052298     0x20  BlueNRG1GattClient.o [1]
  .text                   ro code  0x100522b8     0x20  GenericGattClient.o [1]
  .text                   ro code  0x100522d8     0x20  BlueNRG1GattClient.o [1]
  .text                   ro code  0x100522f8     0x20  BlueNRG1GattClient.o [1]
  .text                   ro code  0x10052318     0x22  BlueNRG1GattConnectionClient.o [1]
  .text                   ro code  0x1005233a     0x14  GenericGattClient.o [1]
  .text                   ro code  0x1005234e     0x96  BlueNRG1DiscoveredCharacteristic.o [1]
  .text                   ro code  0x100523e4     0x38  BlueNRG1GattConnectionClient.o [1]
  .text                   ro code  0x1005241c     0x1c  BlueNRG1GattConnectionClient.o [1]
  .text                   ro code  0x10052438     0x1c  BlueNRG1GattConnectionClient.o [1]
  .text                   ro code  0x10052454     0x36  GenericGattClient.o [1]
  i.aci_gatt_disc_all_char_of_service
                          ro code  0x1005248a      0x8  bluenrg_gatt_aci.o [5]
  i.aci_gatt_disc_char_by_uuid
                          ro code  0x10052492     0x28  bluenrg_gatt_aci.o [5]
  i.Find_Gatt_Client      ro code  0x100524bc     0x40  gatt_client.o [5]
  i.acl_list_get_pckt_count
                          ro code  0x100524fc      0x4  acl_list.o [5]
  i.PM_Pckt_Cmp           ro code  0x10052500     0x6a  pm.o [5]
  i.L2CAP_Get_PDU_Len     ro code  0x1005256a      0xe  l2cap.o [5]
  i.PM_Get_Pckt           ro code  0x10052578     0x80  pm.o [5]
  i.GATT_Clear_Flag       ro code  0x100525f8      0x8  rom_att.o [5]
  i.Send_Error_Resp       ro code  0x10052600     0x30  rom_att.o [5]
  i.GATT_Set_Flag         ro code  0x10052630      0x8  rom_att.o [5]
  i.PM_Set_ConnHandle     ro code  0x10052638      0xc  pm.o [5]
  i.acl_list_insert_tail  ro code  0x10052644     0x20  acl_list.o [5]
  i.Prepare_Write_Resp    ro code  0x10052664    0x194  att.o [5]
  i.Write_Resp            ro code  0x100527f8    0x14a  att.o [5]
  i.acl_list_remove       ro code  0x10052942     0x20  acl_list.o [5]
  i.PM_Release_Pckt       ro code  0x10052964     0x5c  pm.o [5]
  i.Write_Cmd             ro code  0x100529c0    0x132  att.o [5]
  i.Find_L2cap_signalling_connection
                          ro code  0x10052af4     0x38  l2cap.o [5]
  i.LL_Start_Connection_Update
                          ro code  0x10052b2c    0x140  ll_routines_master.o [5]
  i.PM_Set_Att_Pdu_Length
                          ro code  0x10052c6c     0x50  pm.o [5]
  i.L2C_Send_Data         ro code  0x10052cbc     0x2c  l2cap.o [5]
  .text                   ro code  0x10052ce8      0x8  btle.o [1]
  i.Mem_assign            ro code  0x10052cf0     0x16  mem_alloc.o [5]
  i.mem_alloc_ctx_init    ro code  0x10052d08     0xa8  mem_alloc.o [5]
  i.hal_get_hw_version    ro code  0x10052db0     0x20  hal.o [5]
  i.Timer_Init            ro code  0x10052dd0     0x34  host_timer.o [5]
  i.LL_Init               ro code  0x10052e04    0x180  rom_ll_ll_routines.o [5]
  i.PM_Init               ro code  0x10052f84     0x70  pm.o [5]
  i.Acl_Init              ro code  0x10052ff4     0x34  acl.o [5]
  i.L2C_Init              ro code  0x10053028     0x44  l2cap.o [5]
  i.SMP_Init              ro code  0x1005306c     0x70  sm_common.o [5]
  i.GAP_Init_Context      ro code  0x100530dc     0x14  gap.o [5]
  i.HCI_Init              ro code  0x100530f0     0x54  hci.o [5]
  i.HAL_Init              ro code  0x10053144     0x18  hal.o [5]
  i.Events_Process_init   ro code  0x1005315c     0x50  aci_events.o [5]
  i.HAL_VTimerGetCurrentTime_sysT32
                          ro code  0x100531ac     0x12  host_timer.o [5]
  i.BlueNRG_Start_Crystal_Measurement
                          ro code  0x100531c0     0x1c  bluenrg_main_func.o [5]
  i.set_freq              ro code  0x100531dc     0x7c  rom_ll_timehandling.o [5]
  i.Gatt_Server_Db_Check  ro code  0x10053258     0x4c  gatt_server.o [5]
  i.List_Circular_Get_Size
                          ro code  0x100532a4     0x12  rom_list.o [5]
  i.List_Circular_Remove_Node
                          ro code  0x100532b6     0x20  rom_list.o [5]
  i.Ind_Service_Change_Charac
                          ro code  0x100532d8     0x44  gatt_server.o [5]
  i.Search_Service_Handle
                          ro code  0x1005331c     0x28  gatt_server.o [5]
  i.Get_GAP_Handle        ro code  0x10053344     0x10  rom_gap_rom.o [5]
  i.GAP_Notify_Add_Charac
                          ro code  0x10053354     0x98  rom_gap_rom.o [5]
  i.Check_Encry_Key_Size  ro code  0x100533ec     0x18  rom_gatt_server.o [5]
  i.Search_Handle         ro code  0x10053404     0x1e  rom_gatt_server.o [5]
  i.Gatt_Update_Charac_Value_Ext
                          ro code  0x10053424    0x308  gatt_server.o [5]
  i.HAL_Generate_Random_Bytes_To
                          ro code  0x1005372c     0x20  hal.o [5]
  i.HAL_Flash_Store_Data  ro code  0x1005374c     0x50  hal.o [5]
  .text                   ro code  0x1005379c     0x3c  BlueNRG1_flash.o [1]
  i.is_Buffer_All_Set_To  ro code  0x100537d8     0x1e  utils.o [5]
  i.LL_LE_Set_Address_Resolution_Enable
                          ro code  0x100537f8     0x24  ll_privacy.o [5]
  .text                   ro code  0x1005381c     0x20  BlueNRG1GattServer.o [1]
  .text                   ro code  0x1005383c     0x38  btle.o [1]
  .text                   ro code  0x10053874     0x38  btle.o [1]
  i.__ARM_common_switch8  ro code  0x100538ac     0x1a  host_timer.o [5]
  i.Gatt_Add_Descriptor   ro code  0x100538c8    0x150  gatt_server.o [5]
  i.Read_Resp             ro code  0x10053a18    0x146  att.o [5]
  i.Read_Blob_Resp        ro code  0x10053b5e    0x160  att.o [5]
  i.Read_Multi_Resp       ro code  0x10053cc0    0x1a4  att.o [5]
  i.Read_By_Type_Resp     ro code  0x10053e64    0x344  att.o [5]
  i.SDB_Get_SecurityDb_Start_Addr
                          ro code  0x100541a8     0x14  sdb.o [5]
  i.Get_Max_SecDb_Size    ro code  0x100541bc      0x4  sdb.o [5]
  i.Get_SecRec_Len_In_Words
                          ro code  0x100541c0      0xc  rom_sdb.o [5]
  i.LL_LE_Clear_White_List
                          ro code  0x100541cc     0x20  ll_privacy.o [5]
  i.Read_RecordValidity   ro code  0x100541ec     0x10  rom_sdb.o [5]
  i.Read_SDBRecord        ro code  0x100541fc     0x2c  rom_sdb.o [5]
  i.LL_LE_Add_Device_To_White_List
                          ro code  0x10054228     0x78  ll_privacy.o [5]
  i.LL_Check_And_Set_Addresses
                          ro code  0x100542a0    0x1c4  rom_ll_ll_routines.o [5]
  i.get_next_free_slot    ro code  0x10054464     0x34  multi_master_time.o [5]
  i.LL_Set_Advertising_Buffers
                          ro code  0x10054498     0x88  rom_ll_ll_routines.o [5]
  i.schedule_advertise_slot
                          ro code  0x10054520     0x94  multi_master_time.o [5]
  i.SMP_Force_SC_Debug_Key_Usage
                          ro code  0x100545b4     0x20  smp_scv42_isap.o [5]
  i.LL_Enable_Disable_Scan
                          ro code  0x100545d4    0x260  ll_routines_master.o [5]
  i.GAP_Privacy1v2        ro code  0x10054834    0x1c8  rom_gap.o [5]
  i.LL_Create_Connection  ro code  0x100549fc    0x254  ll_routines_master.o [5]
  .text                   ro code  0x10054c50     0x26  ABImemmove.o [7]
  i.Gatt_Disc_All_Charac_Of_Serv
                          ro code  0x10054c78     0x74  gatt_client.o [5]
  i.Gatt_Disc_Charac_By_Uuid
                          ro code  0x10054cec     0xbc  gatt_client.o [5]
  i.Acl_Get_Pack_Off      ro code  0x10054da8     0x18  pm.o [5]
  i.acl_list_is_empty     ro code  0x10054dc0     0x10  acl_list.o [5]
  i.acl_list_remove_head  ro code  0x10054dd0     0x20  acl_list.o [5]
  i.PM_Get_Fragments_Count
                          ro code  0x10054df0     0x12  pm.o [5]
  i.Gatt_Find_Srv_Owner_Of_Handle
                          ro code  0x10054e04     0x44  gatt_server.o [5]
  i.ValidLinkPermRequest  ro code  0x10054e48     0x50  att.o [5]
  i.acl_list_full_on_packt
                          ro code  0x10054e98     0x26  acl_list.o [5]
  i.PM_Copy_Pckt_Data     ro code  0x10054ebe     0x14  pm.o [5]
  i.PM_Extend_Pckt_Pdu_Size
                          ro code  0x10054ed2     0x36  pm.o [5]
  i.PM_Clone_Pckt         ro code  0x10054f08     0x2a  pm.o [5]
  i.aci_gatt_write_permit_req_event_push
                          ro code  0x10054f32     0x56  att.o [5]
  i.Find_Attr_Index       ro code  0x10054f88     0x50  gatt_server.o [5]
  i.aci_gatt_attribute_modified_event_push
                          ro code  0x10054fd8     0x68  att.o [5]
  i.SM_Validate_Signed_Packet
                          ro code  0x10055040     0x7c  ssm_algo.o [5]
  i.CheckSecForSignedWrite
                          ro code  0x100550bc     0x2c  att.o [5]
  i.get_connection_no     ro code  0x100550e8     0x84  multi_master_time.o [5]
  i.reschedule_wakeup_slot
                          ro code  0x1005516c     0xa0  multi_master_time.o [5]
  i.Acl_Transmit_Data     ro code  0x1005520c     0x48  acl.o [5]
  .text                   ro code  0x10055254      0xc  btle.o [1]
  i.LL_Rcv_ACL_Data       ro code  0x10055260     0x30  rom_ll_ll_routines.o [5]
  i.Blue_Init_Global      ro code  0x10055290     0x8c  routines_support.o [5]
  i.nsar_init             ro code  0x1005531c     0x18  multi_master_time.o [5]
  i.PM_Eng_Config         ro code  0x10055334     0x18  pm.o [5]
  i.smp____SC_initialize  ro code  0x1005534c     0x58  smp_scv42_isap.o [5]
  i.hal_radio_activity_state_init
                          ro code  0x100553a4     0x1c  hal.o [5]
  i.fifoCtrl_init         ro code  0x100553c0      0xa  aci_events.o [5]
  i.Timer_sysTime32_convMachineTime
                          ro code  0x100553cc     0x20  host_timer.o [5]
  i.PM_Get_Available_Fragments
                          ro code  0x100553ec     0x38  pm.o [5]
  i.Check_Serv_Chng_Charac_Ind_Not
                          ro code  0x10055424     0x80  rom_gatt_server.o [5]
  i.List_Circular_Node_Present
                          ro code  0x100554a4     0x16  rom_list.o [5]
  i.GATT_Num_Charac_Present
                          ro code  0x100554ba     0x3a  rom_gatt_server.o [5]
  i.SDB_Get_Number_Of_Records
                          ro code  0x100554f4     0x44  rom_sdb.o [5]
  i.Build_Notif_Or_Ind    ro code  0x10055538     0x46  gatt_server.o [5]
  i.Send_Notif_Or_Ind     ro code  0x10055580     0x7c  gatt_server.o [5]
  .text                   ro code  0x100555fc     0x6e  BlueNRG1Device.o [1]
  .text                   ro code  0x1005566c     0x28  BlueNRG1GattServer.o [1]
  .text                   ro code  0x10055694      0x8  xthrow_no_throw.o [4]
  i.PM_Write_Pckt_Data    ro code  0x1005569c     0x14  pm.o [5]
  i.aci_gatt_read_permit_req_event_push
                          ro code  0x100556b0     0x38  att.o [5]
  i.Accu_Handles_Requiring_Auth
                          ro code  0x100556e8     0x6e  rom_att.o [5]
  i.aci_gatt_read_multi_permit_req_event_push
                          ro code  0x10055756     0x50  att.o [5]
  i.STORE_LE_16           ro code  0x100557a6      0x8  utils.o [5]
  i.Accu_UuidTypes_Requiring_Auth
                          ro code  0x100557ae     0xe8  rom_att.o [5]
  i.Get_SecRecord_Size    ro code  0x10055896      0x4  sdb.o [5]
  i.STORE_LE_32           ro code  0x1005589a     0x10  utils.o [5]
  i.PRIV_vGeneratePrivateAddress
                          ro code  0x100558aa     0x62  ll_privacy.o [5]
  i.LL_Set_DirectAddress  ro code  0x1005590c     0x64  rom_ll_ll_routines.o [5]
  i.LL_Set_OwnAddress     ro code  0x10055970     0x3c  rom_ll_ll_routines.o [5]
  i.LL_Get_Address        ro code  0x100559ac     0x30  rom_ll_ll_routines.o [5]
  i.adapt_slot            ro code  0x100559dc    0x258  multi_master_time.o [5]
  i.start_timebase        ro code  0x10055c34     0xa0  multi_master_time.o [5]
  i.smp____SC_is_any_other_SC_Pairing_Ongoing
                          ro code  0x10055cd4     0x38  smp_scv42_isap.o [5]
  i.request_scan_slot     ro code  0x10055d0c     0x88  multi_master_time.o [5]
  i.LL_Allow_Address_Setting
                          ro code  0x10055d94     0x42  rom_ll_ll_routines.o [5]
  i.LL_Get_AdvAddress     ro code  0x10055dd8     0x40  rom_ll_ll_routines.o [5]
  i.LL_Get_ScanAddress    ro code  0x10055e18     0x40  rom_ll_ll_routines.o [5]
  i.Generate_Non_Resolvable_Private_Address
                          ro code  0x10055e58     0x88  rom_gap.o [5]
  i.SM_Generate_Resolvable_Private_Address
                          ro code  0x10055ee0     0x4e  ssm_algo.o [5]
  i.Timer_StopOneShot     ro code  0x10055f30     0x54  host_timer.o [5]
  i.Timer_StartOneShot    ro code  0x10055f84     0x22  host_timer.o [5]
  i.request_connect_slot  ro code  0x10055fa8     0x74  multi_master_time.o [5]
  i.check_access_address_patched
                          ro code  0x1005601c     0xc8  ll_routines_master.o [5]
  i.Check_Flags           ro code  0x100560e4     0x38  gatt_client.o [5]
  i.Att_Send_Read_By_Typ_Req_Pdu
                          ro code  0x1005611c     0x7c  rom_att.o [5]
  i.List_Circular_Remove_Head
                          ro code  0x10056198     0x1a  rom_list.o [5]
  i.SM_Get_Remote_Device_Info
                          ro code  0x100561b4     0x48  sm_common.o [5]
  i.Check_Permission      ro code  0x100561fc     0x9c  rom_att.o [5]
  i.Acl_Copy_Data         ro code  0x10056298     0x82  pm.o [5]
  i.Acl_Clone_Fragment    ro code  0x1005631a     0x20  pm.o [5]
  i.LE_TO_NRG_32          ro code  0x1005633a     0x14  utils.o [5]
  i.SM_CMAC_Generate_Tag  ro code  0x1005634e     0xc4  ssm_algo.o [5]
  i.Acl_Transmit_Packet   ro code  0x10056412     0x16  acl.o [5]
  i.Blue_Set_Radio_Config_Data
                          ro code  0x10056428     0x24  rom_ll_routines_support.o [5]
  i.Select_Next_Notification_Client
                          ro code  0x1005644c     0x54  gatt_server.o [5]
  .text                   ro code  0x100564a0     0x32  btle.o [1]
  .text                   ro code  0x100564d2      0xe  btle.o [1]
  .text                   ro code  0x100564e0     0x76  btle.o [1]
  .text                   ro code  0x10056556     0xbc  BlueNRG1Device.o [1]
  .text                   ro code  0x10056612     0x16  btle.o [1]
  .text                   ro code  0x10056628      0xc  exception.o [4]
  .text                   ro code  0x10056634     0x1e  btle.o [1]
  i.nsar_updateSlotListEntry
                          ro code  0x10056654     0x6c  multi_master_time.o [5]
  i.nsar_insertSlotListEntry
                          ro code  0x100566c0     0x1c  multi_master_time.o [5]
  i.nsar_searchBestFreeSlot
                          ro code  0x100566dc     0xac  multi_master_time.o [5]
  i.SMA_Generate_IRK      ro code  0x10056788     0x28  ssm_algo.o [5]
  i.sm_Calculate_Hash     ro code  0x100567b0     0x38  ssm_algo.o [5]
  i.HAL_VTimerAcc_sysT32_ms
                          ro code  0x100567e8     0x24  host_timer.o [5]
  i.Timer_StartOneShot_sysTime32
                          ro code  0x1005680c     0x70  host_timer.o [5]
  i.SM_Get_Link_Status    ro code  0x1005687c     0x2e  sm_common.o [5]
  i.SM_Check_Encryption_KeySize
                          ro code  0x100568aa     0x20  sm_common.o [5]
  i.sm_Generate_SubKeys   ro code  0x100568ca     0x80  ssm_algo.o [5]
  i.LL_Send_ACL_Data      ro code  0x1005694c     0x54  rom_ll_ll_routines.o [5]
  i.slave_advance         ro code  0x100569a0     0xfc  routines_support.o [5]
  .text                   ro code  0x10056a9c     0x10  string2.o [4]
  .text                   ro code  0x10056aac     0x58  BlueNRG1GattServer.o [1]
  .text                   ro code  0x10056b04      0xe  btle.o [1]
  i.nsar_updateBestFreeSlot
                          ro code  0x10056b12     0x22  multi_master_time.o [5]
  i.SMA_Diversify         ro code  0x10056b34     0x2e  ssm_algo.o [5]
  i.LeftShift             ro code  0x10056b62     0x2c  ssm_algo.o [5]
  .text                   ro code  0x10056b90    0x6b0  rtx_msgqueue.o [1]
  .text                   ro code  0x10057240      0x2  rtx_evr.o [1]
  .text                   ro code  0x10057242      0x2  rtx_evr.o [1]
  .text                   ro code  0x10057244      0x2  rtx_evr.o [1]
  .text                   ro code  0x10057246      0x2  rtx_evr.o [1]
  .text                   ro code  0x10057248      0x2  rtx_evr.o [1]
  .text                   ro code  0x1005724a      0x2  rtx_evr.o [1]
  .text                   ro code  0x1005724c      0x2  rtx_evr.o [1]
  .text                   ro code  0x1005724e      0x2  rtx_evr.o [1]
  .text                   ro code  0x10057250      0x2  rtx_evr.o [1]
  .text                   ro code  0x10057254    0x160  rtx_system.o [1]
  .text                   ro code  0x100573b4      0x2  rtx_evr.o [1]
  .text                   ro code  0x100573b6      0x2  rtx_evr.o [1]
  .text                   ro code  0x100573b8      0xc  os_systick.o [1]
  i.Gatt_Super_Handler    ro code  0x100573c4    0x330  gatt_client.o [5]
  i.GAP_Started_Gatt_Proc
                          ro code  0x100576f4     0x2c  gap.o [5]
  i.Gatt_Check_Not_Error_Resp
                          ro code  0x10057720     0x6c  gatt_client.o [5]
  i.GAP_Internal_Evt_Handler
                          ro code  0x1005778c     0x38  gap.o [5]
  i.aci_gatt_disc_read_char_by_uuid_resp_event_push
                          ro code  0x100577c4     0x74  gatt_client.o [5]
  i.Att_Send_Read_By_Grp_Typ_Req_Pdu
                          ro code  0x10057838     0x7c  rom_att.o [5]
  i.Att_Send_Find_By_Typ_Val_Req_Pdu
                          ro code  0x100578b4     0xa0  rom_att.o [5]
  i.Att_Send_Find_Info_Req_Pdu
                          ro code  0x10057954     0x56  rom_att.o [5]
  i.send_gatt_event       ro code  0x100579aa     0x46  gatt_client.o [5]
  i.aci_gatt_proc_complete_event_push
                          ro code  0x100579f0     0x48  gatt_client.o [5]
  i.aci_gatt_error_resp_event_push
                          ro code  0x10057a38     0x64  gatt_client.o [5]
  i.aci_gap_proc_complete_event_push
                          ro code  0x10057a9c     0x64  gap.o [5]
  i.aci_att_read_by_type_resp_event_push
                          ro code  0x10057b00     0x70  gatt_client.o [5]
  i.aci_att_find_info_resp_event_push
                          ro code  0x10057b70     0x70  gatt_client.o [5]
  i.aci_att_find_by_type_value_resp_event_push
                          ro code  0x10057be0     0x6c  gatt_client.o [5]
  i.aci_att_read_by_group_type_resp_event_push
                          ro code  0x10057c4c     0x70  gatt_client.o [5]
  .text                   ro code  0x10057cbc    0x24c  btle.o [1]
  .text                   ro code  0x10057f08     0x28  btle.o [1]
  .text                   ro code  0x10057f30      0x4  btle.o [1]
  i.Gatt_Server_L2C_Handler
                          ro code  0x10057f34    0x228  gatt_server.o [5]
  i.Stop_Gatt_Timer       ro code  0x1005815c     0x1c  rom_gatt_server.o [5]
  i.Start_Gatt_Timer      ro code  0x10058178     0x24  rom_gatt_server.o [5]
  i.Gatt_Find_Timed_Out_Connection_Index
                          ro code  0x1005819c     0x38  gatt_server.o [5]
  .text                   ro code  0x100581d4    0x1d8  system_bluenrg1.o [1]
  i.Write_Client_Data     ro code  0x100583ac    0x1b8  sdb.o [5]
  i.SDB_Get_GattDb_Start_Addr
                          ro code  0x10058564     0x18  sdb.o [5]
  i.InvaliDate_Record     ro code  0x1005857c     0x20  rom_sdb.o [5]
  i.SDB_Get_GattDb_End_Addr
                          ro code  0x1005859c     0x1c  sdb.o [5]
  i.Flash_Write_Flagged   ro code  0x100585b8     0x3c  nvm.o [5]
  i.SDB_Add_Record        ro code  0x100585f4    0x1ac  sdb.o [5]
  i.SDB_Delete            ro code  0x100587a0    0x170  sdb.o [5]
  i.Write_SDBRecord       ro code  0x10058910     0x6c  sdb.o [5]
  i.Erase_Sector          ro code  0x1005897c      0xe  sdb.o [5]
  i.Find_Client_Data      ro code  0x1005898c     0xcc  rom_sdb.o [5]
  i.Delay_With_NOP_Cycles
                          ro code  0x10058a58      0xe  utils.o [5]
  i.L2C_Signal_Channel_Handler
                          ro code  0x10058a68    0x19c  l2cap.o [5]
  i.Find_L2cap_conn_index
                          ro code  0x10058c04     0x38  l2cap.o [5]
  i.aci_l2cap_connection_update_req_event_push
                          ro code  0x10058c3c     0x88  l2cap.o [5]
  i.L2C_Build_Command_Reject_Pdu
                          ro code  0x10058cc4     0x7a  l2cap.o [5]
  .rodata                 const    0x10058d40    0x170  mbed_rtx_handlers.o [1]
  i.smp_Add_To_Database   ro code  0x10058eb0    0x14c  sm_common.o [5]
  i.SM_L2CAP_Handler_ISR  ro code  0x10058ffc    0x12c  sm_common.o [5]
  i.SM_Connection_Complete_Handler
                          ro code  0x10059128     0x7c  sm_common.o [5]
  i.smp_Find_Remote_Device_Index
                          ro code  0x100591a4     0x40  sm_common.o [5]
  .constdata              const    0x100591e4    0x128  crypto.o [5]
  .constdata              const    0x1005930c    0x110  aci_events.o [5]
  .text                   ro code  0x1005941c     0xfa  BlueNRG1_mft.o [1]
  .text                   ro code  0x10059518     0xf0  rtx_timer.o [1]
  .text                   ro code  0x10059608      0x2  rtx_evr.o [1]
  i.LL_Start_Encryption   ro code  0x1005960c     0xec  rom_ll_ll_routines_master.o [5]
  i.hci_acl_data_ind_event_int_cb
                          ro code  0x100596f8     0xe4  acl.o [5]
  i.hci_rx_acl_data       ro code  0x100597dc     0x5a  hci.o [5]
  i.Search_In_Stat        ro code  0x10059836     0x20  acl.o [5]
  i.Check_Stat            ro code  0x10059856     0x24  acl.o [5]
  i.PM_Append_Fragment    ro code  0x1005987a     0x10  pm.o [5]
  i.L2C_Rcv_Event_Handler
                          ro code  0x1005988a     0x3e  l2cap.o [5]
  i.Acl_Get_Last          ro code  0x100598c8      0xc  pm.o [5]
  i.SM_L2CAP_Handler      ro code  0x100598d4     0xe0  sm_common.o [5]
  i.smp_Keys_Distribution_Complete
                          ro code  0x100599b4     0x46  sm_common.o [5]
  i.smp_Pairing_Completed
                          ro code  0x100599fc     0xa8  sm_common.o [5]
  i.smp_OOB_Clear_Remote_Data_Entry_by_Index
                          ro code  0x10059aa4     0x20  sm_common.o [5]
  i.smp____SC_submit_ECC_PK_generation_request
                          ro code  0x10059ac4     0x1c  smp_scv42_isap.o [5]
  i.aci_gap_pairing_complete_event_push
                          ro code  0x10059ae0     0x4c  sm_common.o [5]
  i.aci_gap_authorization_req_event_push
                          ro code  0x10059b2c     0x44  sm_common.o [5]
  .text                   ro code  0x10059b70     0xe0  xfspos.o [3]
  .text                   ro code  0x10059c50     0xb4  fflush.o [3]
  .text                   ro code  0x10059d04      0xc  xfgpos.o [3]
  .rodata                 const    0x10059d10     0xc8  BlueNRG1GattServer.o [1]
  .text                   ro code  0x10059dd8     0xc4  us_ticker_api.o [1]
  .text                   ro code  0x10059e9c     0x78  misc.o [1]
  i.SM_L2CAP_Encryption_changed_Handler_ISR
                          ro code  0x10059f14     0xc4  sm_common.o [5]
  .text                   ro code  0x10059fd8     0xc0  xfwprep.o [3]
  .text                   ro code  0x1005a098     0x22  fseek.o [3]
  .text                   ro code  0x1005a0bc     0x98  irq_cm0.o [1]
  .text                   ro code  0x1005a154     0x98  xfofind.o [3]
  i.hci_acl_data_tx_cmpl_event_int_cb
                          ro code  0x1005a1ec     0x98  acl.o [5]
  i.hci_tx_acl_data_done  ro code  0x1005a284     0x34  hci.o [5]
  .rodata                 const    0x1005a2b8     0x8c  BlueNRG1Gap.o [1]
  .rodata                 const    0x1005a344     0x8c  btle.o [1]
  .rodata                 const    0x1005a3d0     0x84  mbed_critical.o [1]
  .text                   ro code  0x1005a454     0x7e  fclose.o [3]
  .text                   ro code  0x1005a4d2     0x76  btle.o [1]
  .text                   ro code  0x1005a548     0x24  btle.o [1]
  .rodata                 const    0x1005a56c     0x68  rtx_lib.o [1]
  .text                   ro code  0x1005a5d4     0x68  xcloseall.o [3]
  .text                   ro code  0x1005a63c     0x64  btle.o [1]
  .text                   ro code  0x1005a6a0     0x24  btle.o [1]
  .text                   ro code  0x1005a6c4     0x1a  btle.o [1]
  .text                   ro code  0x1005a6de     0x1a  btle.o [1]
  .text                   ro code  0x1005a6f8     0x1a  btle.o [1]
  .text                   ro code  0x1005a712     0x1a  btle.o [1]
  .text                   ro code  0x1005a72c     0x12  SerialBase.o [1]
  i._GAP_Parse_Advertising_Report
                          ro code  0x1005a740     0x64  gap.o [5]
  .constdata              const    0x1005a7a4     0x60  smp_scv42_isap.o [5]
  .rodata                 const    0x1005a804     0x60  rtx_lib.o [1]
  i.GAP_Connection_Complete_Handler
                          ro code  0x1005a864     0x60  gap.o [5]
  i.GAP_LL_Event_Handler_ISR
                          ro code  0x1005a8c4     0x5c  gap.o [5]
  i.GAP_Parse_Advertising_Report
                          ro code  0x1005a920     0x10  gap.o [5]
  i.L2C_Rcv_Event_Handler_ISR
                          ro code  0x1005a930     0x5a  l2cap.o [5]
  i.L2C_Connection_Complete_Handler
                          ro code  0x1005a98a     0x24  l2cap.o [5]
  i.Gatt_Server_L2C_Handler_ISR
                          ro code  0x1005a9b0     0x48  gatt_server.o [5]
  i.L2C_Signal_Channel_Handler_ISR
                          ro code  0x1005a9f8     0x24  l2cap.o [5]
  i.Acl_Disconnected_Peer
                          ro code  0x1005aa1c     0x54  acl.o [5]
  i.GATT_Connection_Complete_Handler
                          ro code  0x1005aa70     0x48  gatt_server.o [5]
  i.L2C_Connection_Complete_Signal_Handler
                          ro code  0x1005aab8     0x24  l2cap.o [5]
  i.L2CAP_Reset_To_Closed_State
                          ro code  0x1005aadc     0x38  l2cap.o [5]
  .text                   ro code  0x1005ab14     0x58  btle.o [1]
  .text                   ro code  0x1005ab6c     0x1c  btle.o [1]
  .text                   ro code  0x1005ab88     0x1a  btle.o [1]
  .text                   ro code  0x1005aba2     0x1a  GenericGattClient.o [1]
  .text                   ro code  0x1005abbc     0x1a  GenericGattClient.o [1]
  .text                   ro code  0x1005abd6     0x1a  btle.o [1]
  .text                   ro code  0x1005abf0     0x56  fputc.o [3]
  .text                   ro code  0x1005ac48     0x50  GenericGattClient.o [1]
  .text                   ro code  0x1005ac98     0x1a  GenericGattClient.o [1]
  .text                   ro code  0x1005acb2     0x1a  GenericGattClient.o [1]
  .rodata                 const    0x1005accc     0x48  FATFileSystem.o [1]
  i.hci_le_enhanced_connection_complete_event_cb
                          ro code  0x1005ad14     0x48  aci_events.o [5]
  i.hci_le_enhanced_connection_complete_event
                          ro code  0x1005ad5c      0x2  aci_events.o [5]
  .rodata                 const    0x1005ad60     0x44  ATCmdParser.o [1]
  .rodata                 const    0x1005ada4     0x44  BlueNRG1Device.o [1]
  i.smp____SC_hci_le_read_local_p256_public_key_complete_evt_hndl
                          ro code  0x1005ade8     0x44  smp_scv42_isap.o [5]
  i.smp____SC_is_Debug_Key_Usage_Forced
                          ro code  0x1005ae2c     0x14  smp_scv42_isap.o [5]
  .rodata                 const    0x1005ae40     0x40  BlueNRG1GattClient.o [1]
  .rodata                 const    0x1005ae80     0x40  GenericGattClient.o [1]
  i.hci_le_connection_complete_event_cb
                          ro code  0x1005aec0     0x40  aci_events.o [5]
  .text                   ro code  0x1005af00     0x3c  zero_init3.o [7]
  .text                   ro code  0x1005af3c     0x3c  packbits_init_single.o [7]
  .rodata                 const    0x1005af78     0x30  BlueNRG1GattServer.o [1]
  i.aci_l2cap_connection_update_req_event_cb
                          ro code  0x1005afa8     0x30  aci_events.o [5]
  .rodata                 const    0x1005afd8     0x2c  btle.o [1]
  .text                   ro code  0x1005b004     0x2c  Timeout.o [1]
  i.hci_le_connection_update_complete_event_cb
                          ro code  0x1005b030     0x2c  aci_events.o [5]
  i.hci_le_connection_update_complete_event
                          ro code  0x1005b05c      0x2  aci_events.o [5]
  i.SMA_Generate_CSRK     ro code  0x1005b060     0x28  ssm_algo.o [5]
  i.aci_att_prepare_write_resp_event_cb
                          ro code  0x1005b088     0x28  aci_events.o [5]
  i.aci_gatt_attribute_modified_event_cb
                          ro code  0x1005b0b0     0x28  aci_events.o [5]
  i.hci_le_read_remote_used_features_complete_event_cb
                          ro code  0x1005b0d8     0x28  aci_events.o [5]
  i.hci_le_read_remote_used_features_complete_event
                          ro code  0x1005b100      0x2  aci_events.o [5]
  i.smp____SC_hci_le_generate_dhkey_complete_evt_hndl
                          ro code  0x1005b104     0x28  smp_scv42_isap.o [5]
  i.hci_disconnection_complete_event_int_cb
                          ro code  0x1005b12c     0x26  aci_events.o [5]
  i.hci_le_connection_complete_event_int_cb
                          ro code  0x1005b152     0x26  aci_events.o [5]
  i.hci_le_enhanced_connection_complete_event_int_cb
                          ro code  0x1005b178     0x26  aci_events.o [5]
  i.aci_att_find_by_type_value_resp_event_cb
                          ro code  0x1005b1a0     0x24  aci_events.o [5]
  i.aci_att_find_info_resp_event_cb
                          ro code  0x1005b1c4     0x24  aci_events.o [5]
  i.aci_att_read_blob_resp_event_cb
                          ro code  0x1005b1e8     0x24  aci_events.o [5]
  i.aci_att_read_blob_resp_event
                          ro code  0x1005b20c      0x2  aci_events.o [5]
  i.aci_att_read_by_group_type_resp_event_cb
                          ro code  0x1005b210     0x24  aci_events.o [5]
  i.aci_att_read_by_type_resp_event_cb
                          ro code  0x1005b234     0x24  aci_events.o [5]
  i.aci_att_read_multiple_resp_event_cb
                          ro code  0x1005b258     0x24  aci_events.o [5]
  i.aci_att_read_multiple_resp_event
                          ro code  0x1005b27c      0x2  aci_events.o [5]
  i.aci_att_read_resp_event_cb
                          ro code  0x1005b280     0x24  aci_events.o [5]
  i.aci_att_write_resp_event_cb
                          ro code  0x1005b2a4     0x24  aci_events.o [5]
  i.aci_att_write_resp_event
                          ro code  0x1005b2c8      0x2  aci_events.o [5]
  i.aci_gap_pairing_complete_event_cb
                          ro code  0x1005b2cc     0x24  aci_events.o [5]
  i.aci_gap_pairing_complete_event
                          ro code  0x1005b2f0      0x2  aci_events.o [5]
  i.aci_gap_proc_complete_event_cb
                          ro code  0x1005b2f4     0x24  aci_events.o [5]
  i.aci_gatt_disc_read_char_by_uuid_resp_event_cb
                          ro code  0x1005b318     0x24  aci_events.o [5]
  i.aci_gatt_error_resp_event_cb
                          ro code  0x1005b33c     0x24  aci_events.o [5]
  i.aci_gatt_error_resp_event
                          ro code  0x1005b360      0x2  aci_events.o [5]
  i.aci_gatt_indication_event_cb
                          ro code  0x1005b364     0x24  aci_events.o [5]
  i.aci_gatt_indication_event
                          ro code  0x1005b388      0x2  aci_events.o [5]
  i.aci_gatt_notification_event_cb
                          ro code  0x1005b38c     0x24  aci_events.o [5]
  i.aci_gatt_notification_event
                          ro code  0x1005b3b0      0x2  aci_events.o [5]
  i.aci_hal_scan_req_report_event_cb
                          ro code  0x1005b3b4     0x24  aci_events.o [5]
  i.aci_hal_scan_req_report_event
                          ro code  0x1005b3d8      0x2  aci_events.o [5]
  i.hci_le_generate_dhkey_complete_event_cb
                          ro code  0x1005b3dc     0x24  aci_events.o [5]
  i.hci_le_generate_dhkey_complete_event
                          ro code  0x1005b400      0x2  aci_events.o [5]
  i.hci_le_long_term_key_request_event_cb
                          ro code  0x1005b404     0x24  aci_events.o [5]
  i.hci_le_long_term_key_request_event
                          ro code  0x1005b428      0x2  aci_events.o [5]
  i.hci_le_read_local_p256_public_key_complete_event_cb
                          ro code  0x1005b42c     0x24  aci_events.o [5]
  i.hci_le_read_local_p256_public_key_complete_event
                          ro code  0x1005b450      0x2  aci_events.o [5]
  i.hci_read_remote_version_information_complete_event_cb
                          ro code  0x1005b454     0x24  aci_events.o [5]
  i.hci_read_remote_version_information_complete_event
                          ro code  0x1005b478      0x2  aci_events.o [5]
  .iar.init_table         const    0x1005b47c     0x58  - Linker created -
  .constdata              const    0x1005b4d4     0x20  rom_ll_timehandling.o [5]
  i.aci_att_exchange_mtu_resp_event_cb
                          ro code  0x1005b4f4     0x20  aci_events.o [5]
  i.aci_att_exchange_mtu_resp_event
                          ro code  0x1005b514      0x2  aci_events.o [5]
  i.aci_gap_device_found_event_cb
                          ro code  0x1005b518     0x20  aci_events.o [5]
  i.aci_gap_device_found_event
                          ro code  0x1005b538      0x2  aci_events.o [5]
  i.aci_gap_keypress_notification_event_cb
                          ro code  0x1005b53c     0x20  aci_events.o [5]
  i.aci_gap_keypress_notification_event
                          ro code  0x1005b55c      0x2  aci_events.o [5]
  i.aci_gap_numeric_comparison_value_event_cb
                          ro code  0x1005b560     0x20  aci_events.o [5]
  i.aci_gap_numeric_comparison_value_event
                          ro code  0x1005b580      0x2  aci_events.o [5]
  i.aci_gatt_proc_complete_event_cb
                          ro code  0x1005b584     0x20  aci_events.o [5]
  i.aci_l2cap_connection_update_resp_event_cb
                          ro code  0x1005b5a4     0x20  aci_events.o [5]
  i.aci_l2cap_connection_update_resp_event
                          ro code  0x1005b5c4      0x2  aci_events.o [5]
  i.aci_l2cap_proc_timeout_event_cb
                          ro code  0x1005b5c8     0x20  aci_events.o [5]
  i.aci_l2cap_proc_timeout_event
                          ro code  0x1005b5e8      0x2  aci_events.o [5]
  i.hci_disconnection_complete_event_cb
                          ro code  0x1005b5ec     0x20  aci_events.o [5]
  i.hci_encryption_change_event_cb
                          ro code  0x1005b60c     0x20  aci_events.o [5]
  i.hci_encryption_change_event
                          ro code  0x1005b62c      0x2  aci_events.o [5]
  i.hci_encryption_key_refresh_complete_event_cb
                          ro code  0x1005b630     0x20  aci_events.o [5]
  i.hci_encryption_key_refresh_complete_event
                          ro code  0x1005b650      0x2  aci_events.o [5]
  i.hci_le_advertising_report_event_cb
                          ro code  0x1005b654     0x20  aci_events.o [5]
  i.hci_le_direct_advertising_report_event_cb
                          ro code  0x1005b674     0x20  aci_events.o [5]
  i.hci_le_direct_advertising_report_event
                          ro code  0x1005b694      0x2  aci_events.o [5]
  i.hci_le_advertising_report_event_int_cb
                          ro code  0x1005b696     0x1e  aci_events.o [5]
  i.hci_le_direct_advertising_report_event_int_cb
                          ro code  0x1005b6b4     0x1e  aci_events.o [5]
  .rodata                 const    0x1005b6d4     0x1c  btle.o [1]
  .rodata                 const    0x1005b6f0     0x1c  mbed_us_ticker_api.o [1]
  .text                   ro code  0x1005b70c     0x1c  xsnprout.o [3]
  i.aci_att_exec_write_resp_event_cb
                          ro code  0x1005b728     0x1c  aci_events.o [5]
  i.aci_gap_addr_not_resolved_event_cb
                          ro code  0x1005b744     0x1c  aci_events.o [5]
  i.aci_gap_addr_not_resolved_event
                          ro code  0x1005b760      0x2  aci_events.o [5]
  i.aci_gap_authorization_req_event_cb
                          ro code  0x1005b764     0x1c  aci_events.o [5]
  i.aci_gap_authorization_req_event
                          ro code  0x1005b780      0x2  aci_events.o [5]
  i.aci_gap_bond_lost_event_cb
                          ro code  0x1005b784     0x1c  aci_events.o [5]
  i.aci_gap_bond_lost_event
                          ro code  0x1005b7a0      0x2  aci_events.o [5]
  i.aci_gap_limited_discoverable_event_cb
                          ro code  0x1005b7a4     0x1c  aci_events.o [5]
  i.aci_gap_limited_discoverable_event
                          ro code  0x1005b7c0      0x2  aci_events.o [5]
  i.aci_gap_pass_key_req_event_cb
                          ro code  0x1005b7c4     0x1c  aci_events.o [5]
  i.aci_gap_pass_key_req_event
                          ro code  0x1005b7e0      0x2  aci_events.o [5]
  i.aci_gap_slave_security_initiated_event_cb
                          ro code  0x1005b7e4     0x1c  aci_events.o [5]
  i.aci_gap_slave_security_initiated_event
                          ro code  0x1005b800      0x2  aci_events.o [5]
  i.aci_gatt_proc_timeout_event_cb
                          ro code  0x1005b804     0x1c  aci_events.o [5]
  i.aci_gatt_proc_timeout_event
                          ro code  0x1005b820      0x2  aci_events.o [5]
  .text                   ro code  0x1005b822     0x1a  GenericGattClient.o [1]
  i.hci_encryption_change_event_int_cb
                          ro code  0x1005b83c     0x1a  aci_events.o [5]
  i.hci_encryption_key_refresh_complete_event_int_cb
                          ro code  0x1005b856     0x1a  aci_events.o [5]
  i.hci_le_generate_dhkey_complete_event_int_cb
                          ro code  0x1005b870     0x1a  aci_events.o [5]
  i.hci_le_read_local_p256_public_key_complete_event_int_cb
                          ro code  0x1005b88a     0x1a  aci_events.o [5]
  .rodata                 const    0x1005b8a4     0x18  xprintflarge.o [3]
  .text                   ro code  0x1005b8bc     0x16  xprout.o [3]
  .text                   ro code  0x1005b8d4     0x10  putchar.o [3]
  i.aci_gatt_prepare_write_permit_req_event_cb
                          ro code  0x1005b8e4     0x16  aci_events.o [5]
  i.aci_gatt_prepare_write_permit_req_event
                          ro code  0x1005b8fa      0x2  aci_events.o [5]
  i.aci_l2cap_command_reject_event_cb
                          ro code  0x1005b8fc     0x16  aci_events.o [5]
  i.aci_l2cap_command_reject_event
                          ro code  0x1005b912      0x2  aci_events.o [5]
  i.hci_rx_acl_data_event_cb
                          ro code  0x1005b914     0x16  aci_events.o [5]
  i.hci_rx_acl_data_event
                          ro code  0x1005b92a      0x4  aci_events.o [5]
  .rodata                 const    0x1005b930     0x14  BlueNRG1GattServer.o [1]
  .rodata                 const    0x1005b944     0x14  BlueNRG1GattServer.o [1]
  .rodata                 const    0x1005b958     0x14  btle.o [1]
  .rodata                 const    0x1005b96c     0x14  btle.o [1]
  .rodata                 const    0x1005b980     0x14  SPI.o [1]
  .rodata                 const    0x1005b994     0x14  Ticker.o [1]
  .rodata                 const    0x1005b9a8     0x14  Timeout.o [1]
  .rodata                 const    0x1005b9bc     0x14  TimerEvent.o [1]
  .rodata                 const    0x1005b9d0     0x14  exception.o [4]
  i.aci_gatt_write_permit_req_event_cb
                          ro code  0x1005b9e4     0x12  aci_events.o [5]
  .constdata              const    0x1005b9f6     0x10  att.o [5]
  .rodata                 const    0x1005ba08     0x10  btle.o [1]
  .rodata                 const    0x1005ba18     0x10  btle.o [1]
  .rodata                 const    0x1005ba28     0x10  btle.o [1]
  .rodata                 const    0x1005ba38     0x10  btle.o [1]
  .rodata                 const    0x1005ba48     0x10  btle.o [1]
  .rodata                 const    0x1005ba58     0x10  btle.o [1]
  .rodata                 const    0x1005ba68     0x10  GenericGattClient.o [1]
  .rodata                 const    0x1005ba78     0x10  GenericGattClient.o [1]
  .rodata                 const    0x1005ba88     0x10  GenericGattClient.o [1]
  .rodata                 const    0x1005ba98     0x10  GenericGattClient.o [1]
  .text                   ro code  0x1005baa8     0x10  BLE.o [1]
  .text                   ro code  0x1005bab8     0x10  BlueNRG1GattClient.o [1]
  .text                   ro code  0x1005bac8     0x10  BlueNRG1GattClient.o [1]
  .text                   ro code  0x1005bad8     0x10  BlueNRG1GattClient.o [1]
  .text                   ro code  0x1005bae8     0x10  btle.o [1]
  .text                   ro code  0x1005baf8     0x10  btle.o [1]
  .text                   ro code  0x1005bb08     0x10  btle.o [1]
  .text                   ro code  0x1005bb18     0x10  GenericGattClient.o [1]
  .text                   ro code  0x1005bb28     0x10  GenericGattClient.o [1]
  .text                   ro code  0x1005bb38     0x10  main.o [1]
  .text                   ro code  0x1005bb48     0x10  main.o [1]
  .text                   ro code  0x1005bb58     0x10  main.o [1]
  .text                   ro code  0x1005bb68     0x10  main.o [1]
  .text                   ro code  0x1005bb78     0x10  startup_bluenrg1.o [1]
  i.aci_gatt_read_multi_permit_req_event_cb
                          ro code  0x1005bb88     0x10  aci_events.o [5]
  i.aci_gatt_read_multi_permit_req_event
                          ro code  0x1005bb98      0x2  aci_events.o [5]
  i.aci_gatt_read_permit_req_event_cb
                          ro code  0x1005bb9a     0x10  aci_events.o [5]
  i.aci_gatt_tx_pool_available_event_cb
                          ro code  0x1005bbaa      0xe  aci_events.o [5]
  i.aci_gatt_tx_pool_available_event
                          ro code  0x1005bbb8      0x2  aci_events.o [5]
  .rodata                 const    0x1005bbbc      0xc  EventQueue.o [1]
  .rodata                 const    0x1005bbc8      0xc  utest_shim.o [1]
  .text                   ro code  0x1005bbd4      0xc  btle.o [1]
  .text                   ro code  0x1005bbe0      0xc  EventQueue.o [1]
  .text                   ro code  0x1005bbec      0xc  cexit.o [7]
  i.hci_le_long_term_key_request_event_int_cb
                          ro code  0x1005bbf8      0xc  aci_events.o [5]
  i.Gatt_Disc_All_Charac_By_Uuid_Cb
                          ro code  0x1005bc04      0xa  gatt_client.o [5]
  i.Gatt_Disc_All_Charac_Cb
                          ro code  0x1005bc0e      0xa  gatt_client.o [5]
  i.aci_gatt_server_confirmation_event_cb
                          ro code  0x1005bc18      0xa  aci_events.o [5]
  i.aci_gatt_server_confirmation_event
                          ro code  0x1005bc22      0x2  aci_events.o [5]
  i.hci_number_of_completed_packets_event_cb
                          ro code  0x1005bc24      0xa  aci_events.o [5]
  i.hci_number_of_completed_packets_event
                          ro code  0x1005bc2e      0x2  aci_events.o [5]
  .rodata                 const    0x1005bc30      0x8  mbed_retarget.o [1]
  .rodata                 const    0x1005bc38      0x8  UDPSocket.o [1]
  .text                   ro code  0x1005bc40      0x8  mbed_retarget.o [1]
  .text                   ro code  0x1005bc48      0x8  utest_shim.o [1]
  .text                   ro code  0x1005bc50      0x8  xpurevirtual.o [3]
  SHT$$PREINIT_ARRAY               0x1005bc58      0x0  <Block>
  SHT$$INIT_ARRAY                  0x1005bc58      0x8  <Block>
    .init_array           const    0x1005bc58      0x4  BlueNRG1Device.o [1]
    .init_array           const    0x1005bc5c      0x4  main.o [1]
  .rodata                 const    0x1005bc60      0x4  rtx_lib.o [1]
  .rodata                 const    0x1005bc64      0x4  nothrow.o [4]
  .text                   ro code  0x1005bc68      0x4  BlueNRG1_it.o [1]
  .text                   ro code  0x1005bc6c      0x4  BlueNRG1Gap.o [1]
  .text                   ro code  0x1005bc70      0x4  btle.o [1]
  .text                   ro code  0x1005bc74      0x4  btle.o [1]
  .text                   ro code  0x1005bc78      0x4  btle.o [1]
  .text                   ro code  0x1005bc7c      0x0  cstart_call_dtors.o [7]
  .text                   ro code  0x1005bc7c      0x0  cstart_closeall.o [7]
  .text                   ro code  0x1005bc7c      0x0  cstart_clearlocks.o [7]
  .rodata                 const    0x1005bc7c      0x0  zero_init3.o [7]
  .rodata                 const    0x1005bc7c      0x0  packbits_init_single.o [7]
  Initializer bytes       const    0x1005bc7c     0xa1  <for P3-1>
  Initializer bytes       const    0x1005bd1d      0xa  <for BLUE-1>
  Initializer bytes       const    0x1005bd27      0x5  <for app_base_block-1>
                                 - 0x1005bd2c  0x1bc6c

"A0":                                            0x838
  BLOCK_STACKLIB_FLASH_DATA
                                   0x10067000    0x838  <Block>
    .noinit.stacklib_flash_data
                          uninit   0x10067000    0x800  btle.o [1]
    .noinit.stacklib_stored_device_id_data
                          uninit   0x10067800     0x38  btle.o [1]
                                 - 0x10067838    0x838

"A4":                                              0x4
  ota_sw_activation_block
                                   0x20000004      0x4  <Block>
    .ota_sw_activation    uninit   0x20000004      0x4  system_bluenrg1.o [1]
                                 - 0x20000008      0x4

"A5":                                              0x4
  savedMSP_block                   0x20000008      0x4  <Block>
    .savedMSP             zero     0x20000008      0x4  system_bluenrg1.o [1]
                                 - 0x2000000c      0x4

"A6":                                              0x4
  wakeupFromSleepFlag_block
                                   0x2000000c      0x4  <Block>
    .wakeupFromSleepFlag  zero     0x2000000c      0x1  system_bluenrg1.o [1]
                                 - 0x20000010      0x4

"A7":                                              0x4
  app_base_block                   0x20000010      0x4  <Block>
    app_base_block-1               0x20000010      0x4  <Init block>
      .app_base           inited   0x20000010      0x4  system_bluenrg1.o [1]
                                 - 0x20000014      0x4

"A8":                                              0x4
  Blue_Flag_Ram_block              0x20000030      0x4  <Block>
    .__blueflag_RAM       zero     0x20000030      0x4  system_bluenrg1.o [1]
                                 - 0x20000034      0x4

"A1":                                            0x20c
  BLUE                             0x200000c0    0x20c  <Block>
    BLUE-1                         0x200000c0    0x20c  <Init block>
      .bss.__blue_RAM     inited   0x200000c0    0x20c  system_bluenrg1.o [1]
                                 - 0x200002cc    0x20c

"P3", part 1 of 3:                               0x311
  P3-1                             0x200002cc    0x311  <Init block>
    .data                 inited   0x200002cc      0xc  BlueNRG1Device.o [1]
    .data                 inited   0x200002d8     0x78  main.o [1]
    .data                 inited   0x20000350      0x4  mbed_rtx_idle.o [1]
    .data                 inited   0x20000354      0x4  mem_alloc.o [5]
    .data                 inited   0x20000358     0x40  xfiles.o [3]
    .data                 inited   0x20000398     0x40  xfiles.o [3]
    .data                 inited   0x200003d8     0x40  xfiles.o [3]
    .data                 inited   0x20000418     0x20  xfiles.o [3]
    .data.os              inited   0x20000438     0xa4  rtx_kernel.o [1]
    __DLIB_PERTHREAD      inited   0x200004dc      0x4  errno.o [3]
    __DLIB_PERTHREAD      inited   0x200004e0     0x74  setlocale.o [3]
    __DLIB_PERTHREAD      inited   0x20000554     0x88  localeconv.o [3]
    .rom_var_in_ram2      inited   0x200005dc      0x1  rom_global_var.o [5]
                                 - 0x200005dd    0x311

"P3", part 2 of 3:                              0x1dd4
  .noinit                 uninit   0x200005e0   0x1bd0  btle.o [1]
  .iar.dynexit                     0x200021b0    0x204  <Block>
    .iar.dynexit          uninit   0x200021b0      0xc  cppinit.o [3]
    .iar.dynexit          uninit   0x200021bc    0x1f8  <Block tail>
                                 - 0x200023b4   0x1dd4

"P3", part 3 of 3:                              0x2674
  .bss                    zero     0x200023b8   0x1070  mbed_boot.o [1]
  .bss                    zero     0x20003428    0x5e8  ll_privacy.o [5]
  .bss.os.thread.stack    zero     0x20003a10    0x300  rtx_lib.o [1]
  .bss.os.thread.stack    zero     0x20003d10    0x200  rtx_lib.o [1]
  .bss                    zero     0x20003f10    0x1d8  dlmalloc.o [3]
  .bss                    zero     0x200040e8    0x1b8  btle.o [1]
  .bss                    zero     0x200042a0    0x140  mbed_boot.o [1]
  .bss                    zero     0x200043e0     0xc4  btle.o [1]
  .bss                    zero     0x200044a4     0xa0  mbed_boot.o [1]
  .bss                    zero     0x20004544     0x68  btle.o [1]
  .bss                    zero     0x200045ac     0x68  mbed_retarget.o [1]
  .bss                    zero     0x20004614     0x50  xfiles.o [3]
  .bss                    zero     0x20004664     0x50  xfiles.o [3]
  .bss.os.msgqueue.mem    zero     0x200046b4     0x50  rtx_lib.o [1]
  .bss.os.thread.cb       zero     0x20004704     0x48  rtx_lib.o [1]
  .bss.os.thread.cb       zero     0x2000474c     0x48  rtx_lib.o [1]
  .bss                    zero     0x20004794     0x41  equeue_mbed.o [1]
  .bss                    zero     0x200047d5      0x1  mbed_error.o [1]
  .bss                    zero     0x200047d6      0x1  os_systick.o [1]
  .bss                    zero     0x200047d8     0x40  mbed_us_ticker_api.o [1]
  .bss.os                 zero     0x20004818     0x40  rtx_lib.o [1]
  .bss                    zero     0x20004858     0x3c  mbed_boot.o [1]
  .bss                    zero     0x20004894     0x38  xsyslock_mtx.o [3]
  .bss                    zero     0x200048cc     0x34  mem_alloc.o [5]
  .bss.os.msgqueue.cb     zero     0x20004900     0x34  rtx_lib.o [1]
  .bss                    zero     0x20004934     0x2c  BLE.o [1]
  .bss                    zero     0x20004960     0x2c  FileBase.o [1]
  .bss                    zero     0x2000498c     0x24  equeue_mbed.o [1]
  .bss                    zero     0x200049b0     0x18  dlmalloc.o [3]
  .bss                    zero     0x200049c8     0x10  serial_api.o [1]
  .bss                    zero     0x200049d8      0x8  btle.o [1]
  .bss                    zero     0x200049e0      0x8  mbed_critical.o [1]
  .bss                    zero     0x200049e8      0x8  rt_OsEventObserver.o [1]
  .bss                    zero     0x200049f0      0x8  serial_api.o [1]
  .bss                    zero     0x200049f8      0x8  us_ticker_api.o [1]
  .bss                    zero     0x20004a00      0x4  btle.o [1]
  .bss                    zero     0x20004a04      0x4  btle.o [1]
  .bss                    zero     0x20004a08      0x4  btle.o [1]
  .bss                    zero     0x20004a0c      0x4  btle.o [1]
  .bss                    zero     0x20004a10      0x4  mbed_retarget.o [1]
  .bss                    zero     0x20004a14      0x4  mbed_retarget.o [1]
  .bss                    zero     0x20004a18      0x4  serial_api.o [1]
  .bss                    zero     0x20004a1c      0x4  Thread.o [1]
  .bss                    zero     0x20004a20      0x4  cppinit.o [3]
  .bss                    zero     0x20004a24      0x4  cppinit.o [3]
  .bss                    zero     0x20004a28      0x4  xgetmemchunk.o [3]
                                 - 0x20004a2c   0x2674

"A10":                                          0x1500
  CSTACK                           0x20004b00    0xc00  <Block>
    CSTACK                uninit   0x20004b00    0xc00  <Block tail>
  HEAP                             0x20005700    0x900  <Block>
    HEAP                  uninit   0x20005700    0x900  <Block tail>
                                 - 0x20006000   0x1500


*******************************************************************************
*** INIT TABLE
***

          Address     Size
          -------     ----
Zero (__iar_zero_init3)
    4 destination ranges, total size 0x267d:
          0x20000008     0x4
          0x2000000c     0x1
          0x20000030     0x4
          0x200023b8  0x2674

Copy/packbits (__iar_packbits_init_single3)
    1 source range, total size 0xa (1% of destination):
          0x1005bd1d     0xa
    1 destination range, total size 0x20c:
          0x200000c0   0x20c

Copy/packbits (__iar_packbits_init_single3)
    1 source range, total size 0x5 (125% of destination):
          0x1005bd27     0x5
    1 destination range, total size 0x4:
          0x20000010     0x4

Copy/packbits (__iar_packbits_init_single3)
    1 source range, total size 0xa1 (20% of destination):
          0x1005bc7c    0xa1
    1 destination range, total size 0x311:
          0x200002cc   0x311



*******************************************************************************
*** MODULE SUMMARY
***

    Module                              ro code  ro data  rw data
    ------                              -------  -------  -------
C:\Users\Gianluca\Documents\mbed\Heart\BUILD\Obj: [1]
    ATCmdParser.o                                     68
    BLE.o                                   458                44
    BLEInstanceBase.o                        16
    BlueNRG1Device.o                        722       74       12
    BlueNRG1DiscoveredCharacteristic.o      150
    BlueNRG1Gap.o                         3 474      140
    BlueNRG1GattClient.o                  2 082       64
    BlueNRG1GattConnectionClient.o        4 102
    BlueNRG1GattServer.o                  3 790      288
    BlueNRG1_ble.o                           36
    BlueNRG1_flash.o                         60
    BlueNRG1_gpio.o                         202
    BlueNRG1_it.o                             4
    BlueNRG1_mft.o                          250
    BlueNRG1_pka.o                           22
    BlueNRG1_sysCtrl.o                       24
    BlueNRG1_uart.o                         456
    EventQueue.o                            142       12
    FATFileSystem.o                                   72
    FileBase.o                               96                44
    FilePath.o                              100
    GapScanningParams.o                      96
    GenericGattClient.o                     382      128
    Mutex.o                                 212
    SPI.o                                    80       20
    SerialBase.o                             18
    Thread.o                                 28                 4
    Ticker.o                                224       20
    Timeout.o                                44       20
    Timer.o                                 220
    TimerEvent.o                            114       20
    UDPSocket.o                                        8
    ble_utils.o                             218
    btle.o                                4 912    2 452    7 884
    equeue.o                                212
    equeue_mbed.o                           302               101
    gpio_api.o                              140
    irq_cm0.o                               152
    main.o                                1 820       29      120
    mbed_assert.o                            84
    mbed_board.o                            344
    mbed_boot.o                             570             4 748
    mbed_critical.o                         180      132        8
    mbed_error.o                             40                 1
    mbed_gpio.o                             156
    mbed_overrides.o                          2
    mbed_retarget.o                         572        8      112
    mbed_rtx_handlers.o                     876      368
    mbed_rtx_idle.o                          36                 4
    mbed_sleep_manager.o                      4
    mbed_ticker_api.o                       936
    mbed_us_ticker_api.o                     12       28       64
    mbed_wait_api_rtos.o                    102
    misc.o                                  120
    os_systick.o                            142                 1
    osal.o                                   40
    pin_device.o                             12
    rt_OsEventObserver.o                                        8
    rtx_delay.o                              76
    rtx_evflags.o                           532
    rtx_evr.o                               114
    rtx_kernel.o                            840       34      164
    rtx_lib.o                                        204    1 620
    rtx_memory.o                            252
    rtx_mempool.o                           204
    rtx_msgqueue.o                        1 712
    rtx_mutex.o                           1 056
    rtx_system.o                            352
    rtx_thread.o                          2 196
    rtx_timer.o                             240
    serial_api.o                            220                28
    startup_bluenrg1.o                      234
    system_bluenrg1.o                       472       15      541
    us_ticker_api.o                         196                 8
    utest_shim.o                             68       12
    -------------------------------------------------------------
    Total:                               38 352    4 216   15 516

command line: [2]
    -------------------------------------------------------------
    Total:

dl6M_tlf.a: [3]
    abort.o                                  10
    assert.o                                 48
    cppinit.o                               164                20
    div.o                                    32
    dlmalloc.o                            5 816               496
    errno.o                                  16        1        4
    fclose.o                                126
    fflush.o                                180
    fputc.o                                  86
    fseek.o                                  34
    localeconv.o                            104       28      136
    low_level_init.o                          4
    memset.o                                 20
    printf.o                                 36
    putchar.o                                16
    setlocale.o                              20       23      116
    strncmp.o                                44
    vsnprint.o                               60
    xcloseall.o                             104
    xencoding_sb.o                           80
    xfgpos.o                                 12
    xfiles.o                                          46      384
    xfofind.o                               152
    xfspos.o                                224
    xfwprep.o                               192
    xgetmemchunk.o                           44                 4
    xmbcurmax.o                              10
    xmbtowc.o                                28
    xprintflarge.o                        4 318       24
    xprout.o                                 22
    xpurevirtual.o                            8
    xsnprout.o                               28
    xsyslock.o                               60
    xsyslock_mtx.o                          356                56
    xtls.o                                    2
    xwctomb.o                                24
    -------------------------------------------------------------
    Total:                               12 480      122    1 216

dlpp6M_tl_fc.a: [4]
    cxxabi.o                                104
    cxxabiguard.o                            42
    exception.o                              12       20
    nothrow.o                                          4
    string2.o                                16
    xthrow_no_throw.o                         8
    -------------------------------------------------------------
    Total:                                  182       24

libbluenrg1_stack.a: [5]
    aci_events.o                          2 596      272
    acl.o                                   738
    acl_list.o                              172
    advance_wakeup_time.o                 1 236
    aes128cmac.o                            126
    att.o                                 3 424       16
    bluenrg_gap_aci.o                       276
    bluenrg_gatt_aci.o                      378
    bluenrg_hal_aci.o                        24
    bluenrg_l2cap_aci.o                      42
    bluenrg_main_func.o                     764
    crypto.o                              1 018      296
    device_id_data.o                        300
    gap.o                                 1 128
    gatt_client.o                         2 170
    gatt_server.o                         5 494
    hal.o                                   576
    hci.o                                   726
    host_timer.o                            414
    isr_postproc.o                          332
    isr_routines.o                          756
    l2cap.o                               1 398
    ll_isr.o                              5 908
    ll_privacy.o                          3 266             1 512
    ll_routines.o                           112
    ll_routines_master.o                  4 896
    ll_routines_support.o                    84
    mem_alloc.o                             816        1       56
    multi_master_time.o                   3 722
    nvm.o                                    76
    pm.o                                    978
    rom_att.o                             1 056
    rom_gap.o                               592
    rom_gap_rom.o                           188
    rom_gatt_server.o                       304
    rom_global_var.o                                   1        1
    rom_list.o                              112
    rom_ll_isr_postproc.o                   354
    rom_ll_isr_routines.o                 1 192
    rom_ll_ll_routines.o                  3 080
    rom_ll_ll_routines_master.o             236
    rom_ll_routines_support.o               280
    rom_ll_timehandling.o                   298       32
    rom_sdb.o                               520
    routines_support.o                      408
    sdb.o                                 1 438
    sm_common.o                           2 044
    smp_scv42_isap.o                        332       96
    ssm_algo.o                              752
    utils.o                                  88
    -------------------------------------------------------------
    Total:                               57 220      714    1 569

m6M_tl.a: [6]
    DblAddSub.o                             436
    DblCmpLe.o                               50
    DblDiv.o                                194
    DblMul.o                                388
    DblToI32.o                               82
    FltMul.o                                176
    FltToS32.o                               58
    FltToU64.o                               60
    I32ToDbl.o                               52
    I32ToFlt.o                               30
    -------------------------------------------------------------
    Total:                                1 526

rt6M_tl.a: [7]
    ABImemcpy.o                              92
    ABImemmove.o                             38
    ABImemset.o                              88
    I32DivModFast.o                         224
    I64DivMod.o                             106
    I64DivZer.o                               2
    I64Mul.o                                 50
    I64Shl.o                                 34
    IntDivZer.o                               2
    XXexit.o                                 12
    cexit.o                                  12
    cstart_call_dtors.o
    cstart_clearlocks.o
    cstart_closeall.o
    data_init.o                              40
    dynamic_init.o                           28
    memchr.o                                 24
    memcmp.o                                 40
    packbits_init_single.o                   60
    strchr.o                                 20
    strlen.o                                 16
    uread4.o                                 22
    zero_init3.o                             60
    -------------------------------------------------------------
    Total:                                  970

    Gaps                                    160       14        1
    Linker created                                    88    5 880
-----------------------------------------------------------------
    Grand Total:                        110 890    5 178   24 182


*******************************************************************************
*** ENTRY LIST
***

Entry                      Address    Size  Type      Object
-----                      -------    ----  ----      ------
.iar.dynexit$$Base      0x200021b0           --   Gb  - Linker created -
.iar.dynexit$$Limit     0x200023b4           --   Gb  - Linker created -
.iar.init_table$$Base   0x1005b47c           --   Gb  - Linker created -
.iar.init_table$$Limit  0x1005b4d4           --   Gb  - Linker created -
AES128ECB_Wrapper       0x10044c37    0x7e  Code  Gb  aes128cmac.o [5]
AES_general_SW_enc      0x10044ced   0x25c  Code  Gb  crypto.o [5]
AES_keyschedule_enc     0x10044cb5    0x36  Code  Gb  crypto.o [5]
AES_keyschedule_enc_LL  0x10044f55   0x158  Code  Lc  crypto.o [5]
Accu_Handles_Requiring_Auth
                        0x100556e9    0x6e  Code  Gb  rom_att.o [5]
Accu_UuidTypes_Requiring_Auth
                        0x100557af    0xe8  Code  Gb  rom_att.o [5]
Acl_Clone_Fragment      0x1005631b    0x20  Code  Gb  pm.o [5]
Acl_Copy_Data           0x10056299    0x82  Code  Lc  pm.o [5]
Acl_Disconnected_Peer   0x1005aa1d    0x4c  Code  Gb  acl.o [5]
Acl_Get_Last            0x100598c9     0xc  Code  Gb  pm.o [5]
Acl_Get_Pack_Off        0x10054da9    0x18  Code  Gb  pm.o [5]
Acl_Init                0x10052ff5    0x2c  Code  Gb  acl.o [5]
Acl_Rcv_Pkt_Handler     0x10044729    0x1e  Code  Gb  acl.o [5]
Acl_Transmit_Data       0x1005520d    0x42  Code  Gb  acl.o [5]
Acl_Transmit_Packet     0x10056413    0x16  Code  Gb  acl.o [5]
Acl_Tx_Cmpl_Pkt_Handler
                        0x10044405    0x1e  Code  Gb  acl.o [5]
Att_Send_Find_By_Typ_Val_Req_Pdu
                        0x100578b5    0xa0  Code  Gb  rom_att.o [5]
Att_Send_Find_Info_Req_Pdu
                        0x10057955    0x56  Code  Gb  rom_att.o [5]
Att_Send_Read_By_Grp_Typ_Req_Pdu
                        0x10057839    0x7c  Code  Gb  rom_att.o [5]
Att_Send_Read_By_Typ_Req_Pdu
                        0x1005611d    0x7c  Code  Gb  rom_att.o [5]
Attribute_Modified_CB(unsigned short, unsigned short, unsigned short, unsigned short, unsigned char *)
                        0x1004b1b1   0x12a  Code  Gb  btle.o [1]
BLE::BLE(unsigned int)::transportInstances
                        0x2000495c     0x4  Data  Lc  BLE.o [1]
BLE::Instance(unsigned int)
                        0x100489e1    0xb0  Code  Gb  BLE.o [1]
BLE::Instance(unsigned int)::badSingleton
                        0x20004934    0x20  Data  Lc  BLE.o [1]
BLE::Instance(unsigned int)::singletons
                        0x20004954     0x4  Data  Lc  BLE.o [1]
BLE::Instance(unsigned int)::static guard for badSingleton
                        0x20004958     0x4  Data  Lc  BLE.o [1]
BLE::gap()              0x10048a99     0x4  Code  Gb  BLE.o [1]
BLE::gap() const        0x10048a95     0x4  Code  Gb  BLE.o [1]
BLE::gattServer()       0x10048ab5     0x4  Code  Gb  BLE.o [1]
BLE::initImplementation(FunctionPointerWithContext<BLE::InitializationCompleteCallbackContext *>)
                        0x100489bd    0x24  Code  Gb  BLE.o [1]
BLE::signalEventsToProcess()
                        0x10048ad1    0x36  Code  Gb  BLE.o [1]
BLEInstanceBase::signalEventsToProcess(unsigned int)
                        0x1004af9d     0xe  Code  Gb  BLEInstanceBase.o [1]
BLEInstanceBase::~BLEInstanceBase() [subobject]
                        0x1004af9b     0x2  Code  Gb  BLEInstanceBase.o [1]
BLOCK_STACKLIB_FLASH_DATA$$Base
                        0x10067000           --   Gb  - Linker created -
BLOCK_STACKLIB_FLASH_DATA$$Limit
                        0x10067838           --   Gb  - Linker created -
BLUE$$Base              0x200000c0           --   Gb  - Linker created -
BLUE$$Limit             0x200002cc           --   Gb  - Linker created -
BlueNRG1Device::getGap()
                        0x1004935d     0x8  Code  Gb  BlueNRG1Device.o [1]
BlueNRG1Device::getGattServer()
                        0x10049365     0x8  Code  Gb  BlueNRG1Device.o [1]
BlueNRG1Device::init(unsigned int, FunctionPointerWithContext<BLE::InitializationCompleteCallbackContext *>)
                        0x1004930d    0x50  Code  Gb  BlueNRG1Device.o [1]
BlueNRG1Device::~BlueNRG1Device()
                        0x10049301     0x2  Code  Gb  BlueNRG1Device.o [1]
BlueNRG1DiscoveredCharacteristic::setLastHandle(unsigned short)
                        0x100523e1     0x4  Code  Gb  BlueNRG1DiscoveredCharacteristic.o [1]
BlueNRG1DiscoveredCharacteristic::setup(BlueNRG1GattClient *, unsigned long, UUID, DiscoveredCharacteristic::Properties_t, unsigned short, unsigned short, unsigned short)
                        0x1005234f    0x92  Code  Gb  BlueNRG1DiscoveredCharacteristic.o [1]
BlueNRG1Gap::BlueNRG1Gap()
                        0x1004e871    0xfc  Code  Gb  BlueNRG1Device.o [1]
BlueNRG1Gap::Discovery_CB(BlueNRG1Gap::Reason_t, unsigned char, unsigned char, unsigned char *, unsigned char *, unsigned char *, unsigned char *)
                        0x1004dbcd   0x108  Code  Gb  BlueNRG1Gap.o [1]
BlueNRG1Gap::createConnection()
                        0x1004e061    0x5e  Code  Gb  BlueNRG1Gap.o [1]
BlueNRG1Gap::getAddress(BLEProtocol::AddressType::Type *, unsigned char *)
                        0x1004dacb    0x60  Code  Gb  BlueNRG1Gap.o [1]
BlueNRG1Gap::getAdvertisingPolicyMode() const
                        0x1004e0c1     0x8  Code  Gb  BlueNRG1Gap.o [1]
BlueNRG1Gap::getConnectionHandle()
                        0x1004da57     0x6  Code  Gb  BlueNRG1Gap.o [1]
BlueNRG1Gap::getGapRole()
                        0x1004e0df     0x6  Code  Gb  BlueNRG1Gap.o [1]
BlueNRG1Gap::getInstance()
                        0x1004b9cd    0x3c  Code  Gb  btle.o [1]
BlueNRG1Gap::getInstance()::m_instance
                        0x200040e8   0x1b8  Data  Gb  btle.o [1]
BlueNRG1Gap::getMinAdvertisingInterval() const
                        0x1005bc6d     0x4  Code  Gb  BlueNRG1Gap.o [1]
BlueNRG1Gap::getScanningPolicyMode() const
                        0x1004e0c9     0x8  Code  Gb  BlueNRG1Gap.o [1]
BlueNRG1Gap::setAddress(BLEProtocol::AddressType::Type, unsigned char const *)
                        0x1004da5d    0x6e  Code  Gb  BlueNRG1Gap.o [1]
BlueNRG1Gap::setAdvParameters()
                        0x1004dd95    0x4a  Code  Gb  BlueNRG1Gap.o [1]
BlueNRG1Gap::setAdvertisingData(GapAdvertisingData const &, GapAdvertisingData const &)
                        0x1004d431   0x1c4  Code  Gb  BlueNRG1Gap.o [1]
BlueNRG1Gap::setAppearance(GapAdvertisingData::Appearance_t)
                        0x1004db2d    0x5a  Code  Gb  BlueNRG1Gap.o [1]
BlueNRG1Gap::setConnectionHandle(unsigned short)
                        0x1004da51     0x6  Code  Gb  BlueNRG1Gap.o [1]
BlueNRG1Gap::setConnectionInterval(unsigned short)
                        0x1004e0d3     0xc  Code  Gb  BlueNRG1Gap.o [1]
BlueNRG1Gap::setConnectionParameters()
                        0x1004de05   0x15c  Code  Gb  BlueNRG1Gap.o [1]
BlueNRG1Gap::setGapRole(Gap::Role_t)
                        0x1004e0e5     0x6  Code  Gb  BlueNRG1Gap.o [1]
BlueNRG1Gap::startAdvertising(GapAdvertisingParams const &)
                        0x1004d725   0x190  Code  Gb  BlueNRG1Gap.o [1]
BlueNRG1Gap::~BlueNRG1Gap()
                        0x1005a63d    0x64  Code  Gb  btle.o [1]
BlueNRG1GattClient::BlueNRG1GattClient()
                        0x1004f541    0x58  Code  Gb  btle.o [1]
BlueNRG1GattClient::charReadCB(unsigned long, unsigned char, unsigned char *)
                        0x1004e6f5    0x2a  Code  Gb  BlueNRG1GattClient.o [1]
BlueNRG1GattClient::charWriteExecCB(unsigned long)
                        0x1004e755    0x22  Code  Gb  BlueNRG1GattClient.o [1]
BlueNRG1GattClient::charWritePrepareCB(unsigned long, unsigned char, unsigned short, unsigned short, unsigned char *)
                        0x1004e721    0x34  Code  Gb  BlueNRG1GattClient.o [1]
BlueNRG1GattClient::createGattConnectionClient(unsigned long)
                        0x1004e189    0xc4  Code  Gb  BlueNRG1GattClient.o [1]
BlueNRG1GattClient::discAllCharacDescCB(unsigned long, unsigned char, unsigned char, unsigned char *)
                        0x1004e6c9    0x2c  Code  Gb  BlueNRG1GattClient.o [1]
BlueNRG1GattClient::gattProcedureCompleteCB(unsigned long, unsigned char)
                        0x1004e5ed    0x2c  Code  Gb  BlueNRG1GattClient.o [1]
BlueNRG1GattClient::getGattConnectionClient(unsigned long)
                        0x1004e45d    0xc6  Code  Gb  BlueNRG1GattClient.o [1]
BlueNRG1GattClient::getInstance()
                        0x1004e135    0x3c  Code  Gb  btle.o [1]
BlueNRG1GattClient::getInstance()::m_instance
                        0x20004544    0x68  Data  Gb  btle.o [1]
BlueNRG1GattClient::primaryServiceCB(unsigned long, unsigned char, unsigned char *)
                        0x1004e645    0x2a  Code  Gb  BlueNRG1GattClient.o [1]
BlueNRG1GattClient::primaryServicesCB(unsigned long, unsigned char, unsigned char, unsigned char *)
                        0x1004e619    0x2c  Code  Gb  BlueNRG1GattClient.o [1]
BlueNRG1GattClient::removeGattConnectionClient(unsigned long, unsigned char)
                        0x1004e2e9    0x52  Code  Gb  BlueNRG1GattClient.o [1]
BlueNRG1GattClient::serviceCharByUUIDCB(unsigned long, unsigned char, unsigned short, unsigned char *)
                        0x1004e69d    0x2c  Code  Gb  BlueNRG1GattClient.o [1]
BlueNRG1GattClient::serviceCharsCB(unsigned long, unsigned char, unsigned char, unsigned char *)
                        0x1004e671    0x2c  Code  Gb  BlueNRG1GattClient.o [1]
BlueNRG1GattClient::~BlueNRG1GattClient()
                        0x1005bbd5     0xc  Code  Gb  btle.o [1]
BlueNRG1GattConnectionClient::BlueNRG1GattConnectionClient(BlueNRG1GattClient *, unsigned long)
                        0x1004f5c5    0xec  Code  Gb  BlueNRG1GattClient.o [1]
BlueNRG1GattConnectionClient::charReadCB(unsigned char, unsigned char *)
                        0x100503f9    0x28  Code  Gb  BlueNRG1GattConnectionClient.o [1]
BlueNRG1GattConnectionClient::charWriteExecCB()
                        0x10050447    0x18  Code  Gb  BlueNRG1GattConnectionClient.o [1]
BlueNRG1GattConnectionClient::charWritePrepareCB(unsigned char, unsigned short, unsigned short, unsigned char *)
                        0x10050421    0x26  Code  Gb  BlueNRG1GattConnectionClient.o [1]
BlueNRG1GattConnectionClient::discAllCharacDescCB(unsigned char, unsigned char, unsigned char *)
                        0x10050461   0x152  Code  Gb  BlueNRG1GattConnectionClient.o [1]
BlueNRG1GattConnectionClient::findServiceChars()
                        0x100500e9   0x1e4  Code  Gb  BlueNRG1GattConnectionClient.o [1]
BlueNRG1GattConnectionClient::gattProcedureCompleteCB(unsigned char)
                        0x1004f6e1    0xc0  Code  Gb  BlueNRG1GattConnectionClient.o [1]
BlueNRG1GattConnectionClient::primaryServiceCB(unsigned char, unsigned char *)
                        0x1004f955   0x13a  Code  Gb  BlueNRG1GattConnectionClient.o [1]
BlueNRG1GattConnectionClient::primaryServicesCB(unsigned char, unsigned char, unsigned char *)
                        0x1004f7a9   0x13a  Code  Gb  BlueNRG1GattConnectionClient.o [1]
BlueNRG1GattConnectionClient::serviceCharByUUIDCB(unsigned char, unsigned short, unsigned char *)
                        0x1004fdfd   0x1da  Code  Gb  BlueNRG1GattConnectionClient.o [1]
BlueNRG1GattConnectionClient::serviceCharsCB(unsigned char, unsigned char, unsigned char *)
                        0x1004fb01   0x25a  Code  Gb  BlueNRG1GattConnectionClient.o [1]
BlueNRG1GattConnectionClient::terminateServiceDiscovery()
                        0x100503d1    0x28  Code  Gb  BlueNRG1GattConnectionClient.o [1]
BlueNRG1GattServer::BlueNRG1GattServer()
                        0x1004e96d    0x74  Code  Gb  btle.o [1]
BlueNRG1GattServer::HCIDataReadEvent(GattReadCallbackParams const *)
                        0x1004d319    0x2a  Code  Gb  BlueNRG1GattServer.o [1]
BlueNRG1GattServer::HCIDataWrittenEvent(GattWriteCallbackParams const *)
                        0x1004d2f5    0x22  Code  Gb  BlueNRG1GattServer.o [1]
BlueNRG1GattServer::HCIEvent(GattServerEvents::gattEvent_e, unsigned short)
                        0x1004d345    0x6a  Code  Gb  BlueNRG1GattServer.o [1]
BlueNRG1GattServer::Read_Request_CB(unsigned short)
                        0x1004d0b1    0x50  Code  Gb  BlueNRG1GattServer.o [1]
BlueNRG1GattServer::Write_Request_CB(unsigned short, unsigned short, unsigned char, unsigned char const *)
                        0x1004d111    0x62  Code  Gb  BlueNRG1GattServer.o [1]
BlueNRG1GattServer::addService(GattService &)
                        0x1004c7f1   0x470  Code  Gb  BlueNRG1GattServer.o [1]
BlueNRG1GattServer::computeAttributesRecord(GattService &)
                        0x1004d3af    0x54  Code  Gb  BlueNRG1GattServer.o [1]
BlueNRG1GattServer::getCharacteristicFromHandle(unsigned short)
                        0x1004d189    0x98  Code  Gb  BlueNRG1GattServer.o [1]
BlueNRG1GattServer::getInstance()
                        0x1004ba09    0x3c  Code  Gb  btle.o [1]
BlueNRG1GattServer::getInstance()::m_instance
                        0x200043e0    0xc4  Data  Gb  btle.o [1]
BlueNRG1GattServer::write(unsigned short, unsigned char const *, unsigned short, bool)
                        0x1004ce61    0xe6  Code  Gb  BlueNRG1GattServer.o [1]
BlueNRG1GattServer::~BlueNRG1GattServer()
                        0x1005ab15    0x58  Code  Gb  btle.o [1]
BlueNRG_Stack_Init_params
                        0x1004b090    0x34  Data  Lc  btle.o [1]
BlueNRG_Stack_Initialization
                        0x1004c6d9    0x2c  Code  Gb  bluenrg_main_func.o [5]
BlueNRG_Stack_Initialize_ConfigData
                        0x10050cf9    0x40  Code  Gb  bluenrg_main_func.o [5]
BlueNRG_Stack_Initialize_Layers
                        0x10050d41    0x7e  Code  Gb  bluenrg_main_func.o [5]
BlueNRG_Stack_Initialize_RAM
                        0x10050cb5    0x26  Code  Gb  bluenrg_main_func.o [5]
BlueNRG_Stack_Initialize_RAM_check
                        0x1004ea69    0x5a  Code  Gb  bluenrg_main_func.o [5]
BlueNRG_Stack_Perform_Crystal_Check
                        0x10050e45    0xa8  Code  Lc  bluenrg_main_func.o [5]
BlueNRG_Start_Crystal_Measurement
                        0x100531c1    0x12  Code  Gb  bluenrg_main_func.o [5]
Blue_Flag_Ram_block$$Base
                        0x20000030           --   Gb  - Linker created -
Blue_Flag_Ram_block$$Limit
                        0x20000034           --   Gb  - Linker created -
Blue_Handler            0x1004b3a9     0x8  Code  Gb  btle.o [1]
Blue_Init_Global        0x10055291    0x84  Code  Gb  routines_support.o [5]
Blue_Set_Radio_Config_Data
                        0x10056429    0x1c  Code  Gb  rom_ll_routines_support.o [5]
Build_Notif_Or_Ind      0x10055539    0x46  Code  Gb  gatt_server.o [5]
CSTACK$$Base            0x20004b00           --   Gb  - Linker created -
CSTACK$$Length          0x00000c00           --   Gb  - Linker created -
CSTACK$$Limit           0x20005700           --   Gb  - Linker created -
CallChainOfFunctionPointersWithContext<Gap const *>::clear()
                        0x1005a6c5    0x1a  Code  Gb  btle.o [1]
CallChainOfFunctionPointersWithContext<Gap::ConnectionCallbackParams_t const *>::clear()
                        0x1005a6f9    0x1a  Code  Gb  btle.o [1]
CallChainOfFunctionPointersWithContext<Gap::DisconnectionCallbackParams_t const *>::clear()
                        0x1005a6df    0x1a  Code  Gb  btle.o [1]
CallChainOfFunctionPointersWithContext<Gap::TimeoutSource_t>::clear()
                        0x1005a713    0x1a  Code  Gb  btle.o [1]
CallChainOfFunctionPointersWithContext<GattClient const *>::clear()
                        0x1005ac99    0x1a  Code  Gb  GenericGattClient.o [1]
CallChainOfFunctionPointersWithContext<GattHVXCallbackParams const *>::clear()
                        0x1005acb3    0x1a  Code  Gb  GenericGattClient.o [1]
CallChainOfFunctionPointersWithContext<GattReadCallbackParams const *>::clear()
                        0x1005aba3    0x1a  Code  Gb  GenericGattClient.o [1]
CallChainOfFunctionPointersWithContext<GattServer const *>::clear()
                        0x1005ab89    0x1a  Code  Gb  btle.o [1]
CallChainOfFunctionPointersWithContext<GattWriteCallbackParams const *>::clear()
                        0x1005abbd    0x1a  Code  Gb  GenericGattClient.o [1]
CallChainOfFunctionPointersWithContext<unsigned int>::clear()
                        0x1005abd7    0x1a  Code  Gb  btle.o [1]
CheckSecForSignedWrite  0x100550bd    0x2c  Code  Gb  att.o [5]
Check_Encry_Key_Size    0x100533ed    0x18  Code  Gb  rom_gatt_server.o [5]
Check_Flags             0x100560e5    0x38  Code  Gb  gatt_client.o [5]
Check_Permission        0x100561fd    0x9c  Code  Gb  rom_att.o [5]
Check_Serv_Chng_Charac_Ind_Not
                        0x10055425    0x7a  Code  Gb  rom_gatt_server.o [5]
Check_Stat              0x10059857    0x24  Code  Gb  acl.o [5]
DEVICE_NAME             0x10047ef4     0xc  Data  Lc  main.o [1]
Delay_With_NOP_Cycles   0x10058a59     0xe  Code  Gb  utils.o [5]
DeviceConfiguration     0x1005820d    0xa4  Code  Gb  system_bluenrg1.o [1]
DiscoveredCharacteristic::DiscoveredCharacteristic()
                        0x1004f599    0x2a  Code  Gb  BlueNRG1GattClient.o [1]
DiscoveredService::DiscoveredService()
                        0x1005b823    0x1a  Code  Gb  GenericGattClient.o [1]
DtorRecArray            0x200021b0     0xc  Data  Lc  cppinit.o [3]
Dynamic_allocator       0x10050a41   0x266  Code  Gb  mem_alloc.o [5]
Dynamic_allocator_noRet
                        0x10050cb1     0x2  Code  Gb  mem_alloc.o [5]
Erase_Sector            0x1005897d     0xe  Code  Lc  sdb.o [5]
EventFlagsCheck         0x1004c4c5    0x50  Code  Lc  rtx_evflags.o [1]
Events_Process_init     0x1005315d    0x4a  Code  Gb  aci_events.o [5]
EvrRtxEventFlagsCreated
                        0x1004ea61     0x2  Code  Wk  rtx_evr.o [1]
EvrRtxEventFlagsDelete  0x1004ea67     0x2  Code  Wk  rtx_evr.o [1]
EvrRtxEventFlagsDestroyed
                        0x1004ea63     0x2  Code  Wk  rtx_evr.o [1]
EvrRtxEventFlagsError   0x10048119    0x44  Code  Gb  mbed_rtx_handlers.o [1]
EvrRtxEventFlagsNew     0x1004ea65     0x2  Code  Wk  rtx_evr.o [1]
EvrRtxEventFlagsWaitCompleted
                        0x1004ea5f     0x2  Code  Wk  rtx_evr.o [1]
EvrRtxEventFlagsWaitTimeout
                        0x10047f37     0x2  Code  Wk  rtx_evr.o [1]
EvrRtxKernelError       0x10048061    0x40  Code  Gb  mbed_rtx_handlers.o [1]
EvrRtxKernelGetState    0x10048729     0x2  Code  Wk  rtx_evr.o [1]
EvrRtxKernelInitialize  0x100487b3     0x2  Code  Wk  rtx_evr.o [1]
EvrRtxKernelInitializeCompleted
                        0x10048727     0x2  Code  Wk  rtx_evr.o [1]
EvrRtxKernelStart       0x100487b5     0x2  Code  Wk  rtx_evr.o [1]
EvrRtxKernelStarted     0x100487b1     0x2  Code  Wk  rtx_evr.o [1]
EvrRtxMemoryAlloc       0x10048e63     0x2  Code  Wk  rtx_evr.o [1]
EvrRtxMemoryBlockAlloc  0x10048e5f     0x2  Code  Wk  rtx_evr.o [1]
EvrRtxMemoryBlockFree   0x10048e61     0x2  Code  Wk  rtx_evr.o [1]
EvrRtxMemoryBlockInit   0x10048e5d     0x2  Code  Wk  rtx_evr.o [1]
EvrRtxMemoryFree        0x10048e65     0x2  Code  Wk  rtx_evr.o [1]
EvrRtxMemoryInit        0x1004919d     0x2  Code  Wk  rtx_evr.o [1]
EvrRtxMemoryPoolAllocTimeout
                        0x10047f3d     0x2  Code  Wk  rtx_evr.o [1]
EvrRtxMessageQueueCreated
                        0x10057245     0x2  Code  Wk  rtx_evr.o [1]
EvrRtxMessageQueueError
                        0x10048251    0x10  Code  Gb  mbed_rtx_handlers.o [1]
EvrRtxMessageQueueGet   0x100573b7     0x2  Code  Wk  rtx_evr.o [1]
EvrRtxMessageQueueGetPending
                        0x1005724b     0x2  Code  Wk  rtx_evr.o [1]
EvrRtxMessageQueueGetTimeout
                        0x10047f3f     0x2  Code  Wk  rtx_evr.o [1]
EvrRtxMessageQueueInsertPending
                        0x100573b5     0x2  Code  Wk  rtx_evr.o [1]
EvrRtxMessageQueueInserted
                        0x10057241     0x2  Code  Wk  rtx_evr.o [1]
EvrRtxMessageQueueNew   0x1005724f     0x2  Code  Wk  rtx_evr.o [1]
EvrRtxMessageQueueNotInserted
                        0x10057249     0x2  Code  Wk  rtx_evr.o [1]
EvrRtxMessageQueueNotRetrieved
                        0x1005724d     0x2  Code  Wk  rtx_evr.o [1]
EvrRtxMessageQueuePut   0x10057251     0x2  Code  Wk  rtx_evr.o [1]
EvrRtxMessageQueuePutPending
                        0x10057247     0x2  Code  Wk  rtx_evr.o [1]
EvrRtxMessageQueuePutTimeout
                        0x10047f41     0x2  Code  Wk  rtx_evr.o [1]
EvrRtxMessageQueueRetrieved
                        0x10057243     0x2  Code  Wk  rtx_evr.o [1]
EvrRtxMutexAcquire      0x100487c5     0x2  Code  Wk  rtx_evr.o [1]
EvrRtxMutexAcquirePending
                        0x100487bd     0x2  Code  Wk  rtx_evr.o [1]
EvrRtxMutexAcquireTimeout
                        0x10047f39     0x2  Code  Wk  rtx_evr.o [1]
EvrRtxMutexAcquired     0x100487b9     0x2  Code  Wk  rtx_evr.o [1]
EvrRtxMutexCreated      0x100487bb     0x2  Code  Wk  rtx_evr.o [1]
EvrRtxMutexDelete       0x100487c9     0x2  Code  Wk  rtx_evr.o [1]
EvrRtxMutexDestroyed    0x100487c1     0x2  Code  Wk  rtx_evr.o [1]
EvrRtxMutexError        0x1004815d    0x44  Code  Gb  mbed_rtx_handlers.o [1]
EvrRtxMutexNew          0x100487c3     0x2  Code  Wk  rtx_evr.o [1]
EvrRtxMutexNotAcquired  0x100487bf     0x2  Code  Wk  rtx_evr.o [1]
EvrRtxMutexRelease      0x100487c7     0x2  Code  Wk  rtx_evr.o [1]
EvrRtxMutexReleased     0x100487b7     0x2  Code  Wk  rtx_evr.o [1]
EvrRtxSemaphoreAcquireTimeout
                        0x10047f3b     0x2  Code  Wk  rtx_evr.o [1]
EvrRtxThreadBlocked     0x10047f47     0x2  Code  Wk  rtx_evr.o [1]
EvrRtxThreadCreated     0x10048443     0x2  Code  Wk  rtx_evr.o [1]
EvrRtxThreadDelay       0x1004c12b     0x2  Code  Wk  rtx_evr.o [1]
EvrRtxThreadDelayCompleted
                        0x10047f33     0x2  Code  Wk  rtx_evr.o [1]
EvrRtxThreadDestroyed   0x1004844b     0x2  Code  Wk  rtx_evr.o [1]
EvrRtxThreadError       0x100480b9    0x44  Code  Gb  mbed_rtx_handlers.o [1]
EvrRtxThreadExit        0x10048261     0xc  Code  Gb  mbed_rtx_handlers.o [1]
EvrRtxThreadFlagsWaitCompleted
                        0x10047f49     0x2  Code  Wk  rtx_evr.o [1]
EvrRtxThreadFlagsWaitTimeout
                        0x10047f35     0x2  Code  Wk  rtx_evr.o [1]
EvrRtxThreadGetId       0x10048447     0x2  Code  Wk  rtx_evr.o [1]
EvrRtxThreadGetName     0x10048445     0x2  Code  Wk  rtx_evr.o [1]
EvrRtxThreadJoined      0x10048449     0x2  Code  Wk  rtx_evr.o [1]
EvrRtxThreadNew         0x1004844d     0x2  Code  Wk  rtx_evr.o [1]
EvrRtxThreadSwitch      0x10047f45     0x2  Code  Wk  rtx_evr.o [1]
EvrRtxThreadUnblocked   0x10047f43     0x2  Code  Wk  rtx_evr.o [1]
EvrRtxTimerCallback     0x10059609     0x2  Code  Wk  rtx_evr.o [1]
FLASH_ErasePage         0x1005379d    0x1a  Code  Gb  BlueNRG1_flash.o [1]
FLASH_ProgramWord       0x100537b7    0x10  Code  Gb  BlueNRG1_flash.o [1]
Find_Attr_Index         0x10054f89    0x48  Code  Gb  gatt_server.o [5]
Find_Client_Data        0x1005898d    0xc8  Code  Gb  rom_sdb.o [5]
Find_Gatt_Client        0x100524bd    0x3c  Code  Gb  gatt_client.o [5]
Find_L2cap_conn_index   0x10058c05    0x34  Code  Lc  l2cap.o [5]
Find_L2cap_signalling_connection
                        0x10052af5    0x32  Code  Gb  l2cap.o [5]
Flash_Write_Flagged     0x100585b9    0x32  Code  Gb  nvm.o [5]
FunctionPointerWithContext<BLE::InitializationCompleteCallbackContext *>::FunctionPointerWithContext(const FunctionPointerWithContext<BLE::InitializationCompleteCallbackContext *>&)
                        0x100492a5    0x16  Code  Gb  BLE.o [1]
FunctionPointerWithContext<BLE::InitializationCompleteCallbackContext *>::functioncaller(const FunctionPointerWithContext<BLE::InitializationCompleteCallbackContext *>*, BLE::InitializationCompleteCallbackContext *)
                        0x1005bb69    0x10  Code  Gb  main.o [1]
FunctionPointerWithContext<BLE::OnEventsToProcessCallbackContext *>::FunctionPointerWithContext(void (*)(BLE::OnEventsToProcessCallbackContext *))
                        0x100492bd    0x24  Code  Gb  BLE.o [1]
FunctionPointerWithContext<BLE::OnEventsToProcessCallbackContext *>::functioncaller(const FunctionPointerWithContext<BLE::OnEventsToProcessCallbackContext *>*, BLE::OnEventsToProcessCallbackContext *)
                        0x1005baa9    0x10  Code  Gb  BLE.o [1]
FunctionPointerWithContext<CharacteristicDescriptorDiscovery::DiscoveryCallbackParams_t const *>::FunctionPointerWithContext(void (*)(CharacteristicDescriptorDiscovery::DiscoveryCallbackParams_t const *))
                        0x100522d9    0x20  Code  Gb  BlueNRG1GattClient.o [1]
FunctionPointerWithContext<CharacteristicDescriptorDiscovery::DiscoveryCallbackParams_t const *>::functioncaller(const FunctionPointerWithContext<CharacteristicDescriptorDiscovery::DiscoveryCallbackParams_t const *>*, CharacteristicDescriptorDiscovery::DiscoveryCallbackParams_t const *)
                        0x1005bac9    0x10  Code  Gb  BlueNRG1GattClient.o [1]
FunctionPointerWithContext<CharacteristicDescriptorDiscovery::TerminationCallbackParams_t const *>::FunctionPointerWithContext(void (*)(CharacteristicDescriptorDiscovery::TerminationCallbackParams_t const *))
                        0x100522f9    0x20  Code  Gb  BlueNRG1GattClient.o [1]
FunctionPointerWithContext<CharacteristicDescriptorDiscovery::TerminationCallbackParams_t const *>::functioncaller(const FunctionPointerWithContext<CharacteristicDescriptorDiscovery::TerminationCallbackParams_t const *>*, CharacteristicDescriptorDiscovery::TerminationCallbackParams_t const *)
                        0x1005bad9    0x10  Code  Gb  BlueNRG1GattClient.o [1]
FunctionPointerWithContext<DiscoveredCharacteristic const *>::FunctionPointerWithContext(void (*)(DiscoveredCharacteristic const *))
                        0x100522b9    0x20  Code  Gb  GenericGattClient.o [1]
FunctionPointerWithContext<DiscoveredCharacteristic const *>::functioncaller(const FunctionPointerWithContext<DiscoveredCharacteristic const *>*, DiscoveredCharacteristic const *)
                        0x1005bb19    0x10  Code  Gb  GenericGattClient.o [1]
FunctionPointerWithContext<DiscoveredService const *>::FunctionPointerWithContext(void (*)(DiscoveredService const *))
                        0x10052299    0x20  Code  Gb  BlueNRG1GattClient.o [1]
FunctionPointerWithContext<DiscoveredService const *>::functioncaller(const FunctionPointerWithContext<DiscoveredService const *>*, DiscoveredService const *)
                        0x1005bab9    0x10  Code  Gb  BlueNRG1GattClient.o [1]
FunctionPointerWithContext<Gap::AdvertisementCallbackParams_t const *>::FunctionPointerWithContext(void (*)(Gap::AdvertisementCallbackParams_t const *))
                        0x10050985    0x20  Code  Gb  btle.o [1]
FunctionPointerWithContext<Gap::AdvertisementCallbackParams_t const *>::functioncaller(const FunctionPointerWithContext<Gap::AdvertisementCallbackParams_t const *>*, Gap::AdvertisementCallbackParams_t const *)
                        0x1005baf9    0x10  Code  Gb  btle.o [1]
FunctionPointerWithContext<Gap::DisconnectionCallbackParams_t const *>::FunctionPointerWithContext(const FunctionPointerWithContext<Gap::DisconnectionCallbackParams_t const *>&)
                        0x10048b79    0x16  Code  Gb  main.o [1]
FunctionPointerWithContext<Gap::DisconnectionCallbackParams_t const *>::FunctionPointerWithContext(void (*)(Gap::DisconnectionCallbackParams_t const *))
                        0x10048b59    0x20  Code  Gb  main.o [1]
FunctionPointerWithContext<Gap::DisconnectionCallbackParams_t const *>::functioncaller(const FunctionPointerWithContext<Gap::DisconnectionCallbackParams_t const *>*, Gap::DisconnectionCallbackParams_t const *)
                        0x1005bb39    0x10  Code  Gb  main.o [1]
FunctionPointerWithContext<GattReadAuthCallbackParams *>::FunctionPointerWithContext(void (*)(GattReadAuthCallbackParams *))
                        0x1004ba75    0x20  Code  Gb  main.o [1]
FunctionPointerWithContext<GattReadAuthCallbackParams *>::functioncaller(const FunctionPointerWithContext<GattReadAuthCallbackParams *>*, GattReadAuthCallbackParams *)
                        0x1005bb49    0x10  Code  Gb  main.o [1]
FunctionPointerWithContext<GattWriteAuthCallbackParams *>::FunctionPointerWithContext(void (*)(GattWriteAuthCallbackParams *))
                        0x1004ba95    0x20  Code  Gb  main.o [1]
FunctionPointerWithContext<GattWriteAuthCallbackParams *>::functioncaller(const FunctionPointerWithContext<GattWriteAuthCallbackParams *>*, GattWriteAuthCallbackParams *)
                        0x1005bb59    0x10  Code  Gb  main.o [1]
FunctionPointerWithContext<bool>::FunctionPointerWithContext(void (*)(bool))
                        0x10050965    0x20  Code  Gb  btle.o [1]
FunctionPointerWithContext<bool>::functioncaller(const FunctionPointerWithContext<bool>*, bool)
                        0x1005bae9    0x10  Code  Gb  btle.o [1]
FunctionPointerWithContext<unsigned long>::FunctionPointerWithContext(void (*)(unsigned long))
                        0x10052279    0x20  Code  Gb  GenericGattClient.o [1]
FunctionPointerWithContext<unsigned long>::functioncaller(const FunctionPointerWithContext<unsigned long>*, unsigned long)
                        0x1005bb29    0x10  Code  Gb  GenericGattClient.o [1]
FunctionPointerWithContext<unsigned short>::FunctionPointerWithContext(void (*)(unsigned short))
                        0x100509e1    0x20  Code  Gb  btle.o [1]
FunctionPointerWithContext<unsigned short>::functioncaller(const FunctionPointerWithContext<unsigned short>*, unsigned short)
                        0x1005bb09    0x10  Code  Gb  btle.o [1]
GAP_Connection_Complete_Handler
                        0x1005a865    0x5a  Code  Gb  gap.o [5]
GAP_Create_Connection   0x10052215    0x5e  Code  Gb  gap.o [5]
GAP_Init                0x1004ed35   0x1de  Code  Gb  gap.o [5]
GAP_Init_Context        0x100530dd     0xe  Code  Gb  gap.o [5]
GAP_Internal_Evt_Handler
                        0x1005778d    0x34  Code  Gb  gap.o [5]
GAP_LL_Event_Handler_ISR
                        0x1005a8c5    0x56  Code  Gb  gap.o [5]
GAP_Notify_Add_Charac   0x10053355    0x94  Code  Gb  rom_gap_rom.o [5]
GAP_Parse_Advertising_Report
                        0x1005a921    0x10  Code  Gb  gap.o [5]
GAP_Privacy1v2          0x10054835   0x1c0  Code  Gb  rom_gap.o [5]
GAP_Started_Gatt_Proc   0x100576f5    0x26  Code  Gb  gap.o [5]
GATT_Clear_Flag         0x100525f9     0x8  Code  Gb  rom_att.o [5]
GATT_Connection_Complete_Handler
                        0x1005aa71    0x42  Code  Gb  gatt_server.o [5]
GATT_Num_Charac_Present
                        0x100554bb    0x3a  Code  Gb  rom_gatt_server.o [5]
GATT_Server_Set_Flag    0x10050f1d    0x10  Code  Lc  gatt_server.o [5]
GATT_Set_Flag           0x10052631     0x8  Code  Gb  rom_att.o [5]
GPIO_Init               0x1004aa9d    0x9e  Code  Gb  BlueNRG1_gpio.o [1]
GPIO_ReadBit            0x1004ab3b     0x6  Code  Gb  BlueNRG1_gpio.o [1]
GPIO_WriteBit           0x1004ab41     0xe  Code  Gb  BlueNRG1_gpio.o [1]
Gap::ConnectionCallbackParams_t::ConnectionCallbackParams_t(unsigned long, Gap::Role_t, BLEProtocol::AddressType::Type, unsigned char const *, BLEProtocol::AddressType::Type, unsigned char const *, Gap::ConnectionParams_t const *)
                        0x1004e7ed    0x3e  Code  Gb  btle.o [1]
Gap::accumulateAdvertisingPayload(GapAdvertisingData::DataType_t, unsigned char const *, unsigned char)
                        0x10048c99    0x4c  Code  Gb  main.o [1]
Gap::getMinAdvertisingInterval() const
                        0x1005bc71     0x4  Code  Gb  btle.o [1]
Gap::startAdvertising()
                        0x10048b3d    0x1a  Code  Gb  main.o [1]
GapAdvertisingData::GapAdvertisingData()
                        0x100508eb    0x18  Code  Gb  btle.o [1]
GapAdvertisingData::addData(GapAdvertisingData::DataType_t, unsigned char const *, unsigned char)
                        0x10048c69    0x30  Code  Gb  main.o [1]
GapAdvertisingData::addField(GapAdvertisingData::DataType_t, unsigned char const *, unsigned char, unsigned char *)
                        0x10049403    0xc6  Code  Gb  main.o [1]
GapAdvertisingData::appendField(GapAdvertisingData::DataType_t, unsigned char const *, unsigned char)
                        0x100494c9    0x50  Code  Gb  main.o [1]
GapAdvertisingData::clear()
                        0x100509a5    0x10  Code  Gb  BlueNRG1Device.o [1]
GapScanningParams::GapScanningParams(unsigned short, unsigned short, unsigned short, bool)
                        0x10050905     0x2  Code  Gb  GapScanningParams.o [1]
GattAttribute::GattAttribute(UUID const &, unsigned char *, unsigned short, unsigned short, bool)
                        0x1004ba45    0x2e  Code  Gb  main.o [1]
GattCharacteristic::GattCharacteristic(UUID const &, unsigned char *, unsigned short, unsigned short, unsigned char, GattAttribute **, unsigned int, bool)
                        0x100493a7    0x42  Code  Gb  main.o [1]
GattClient::processWriteResponse(GattWriteCallbackParams const *)
                        0x10052319    0x22  Code  Gb  BlueNRG1GattConnectionClient.o [1]
GattClient::~GattClient()
                        0x1005ac49    0x50  Code  Gb  GenericGattClient.o [1]
GattServer::addService(GattService &)
                        0x1005bc75     0x4  Code  Gb  btle.o [1]
GattServer::write(unsigned short, unsigned char const *, unsigned short, bool)
                        0x1005bc79     0x4  Code  Gb  btle.o [1]
Gatt_Add_Charac_Desc    0x100516d5   0x156  Code  Gb  gatt_server.o [5]
Gatt_Add_Characteristic
                        0x10051081   0x322  Code  Gb  gatt_server.o [5]
Gatt_Add_Descriptor     0x100538c9   0x146  Code  Gb  gatt_server.o [5]
Gatt_Add_Service        0x10050f31   0x142  Code  Gb  gatt_server.o [5]
Gatt_Appl_Auth_For_Read
                        0x10051935    0xf6  Code  Gb  gatt_server.o [5]
Gatt_Appl_Auth_For_Write
                        0x10050655   0x1e4  Code  Gb  gatt_server.o [5]
Gatt_Check_Not_Error_Resp
                        0x10057721    0x6c  Code  Gb  gatt_client.o [5]
Gatt_Disc_All_Charac_By_Uuid_Cb
                        0x1005bc05     0xa  Code  Gb  gatt_client.o [5]
Gatt_Disc_All_Charac_Cb
                        0x1005bc0f     0xa  Code  Gb  gatt_client.o [5]
Gatt_Disc_All_Charac_Of_Serv
                        0x10054c79    0x66  Code  Gb  gatt_client.o [5]
Gatt_Disc_Charac_By_Uuid
                        0x10054ced    0xac  Code  Gb  gatt_client.o [5]
Gatt_Find_Srv_Owner_Of_Handle
                        0x10054e05    0x3e  Code  Gb  gatt_server.o [5]
Gatt_Find_Timed_Out_Connection_Index
                        0x1005819d    0x34  Code  Gb  gatt_server.o [5]
Gatt_Server_Db_Check    0x10053259    0x42  Code  Gb  gatt_server.o [5]
Gatt_Server_Init        0x1004eba5   0x180  Code  Gb  gatt_server.o [5]
Gatt_Server_L2C_Handler
                        0x10057f35   0x224  Code  Gb  gatt_server.o [5]
Gatt_Server_L2C_Handler_ISR
                        0x1005a9b1    0x42  Code  Gb  gatt_server.o [5]
Gatt_Set_Desc_Value     0x10051831    0xfa  Code  Gb  gatt_server.o [5]
Gatt_Super_Handler      0x100573c5   0x320  Code  Gb  gatt_client.o [5]
Gatt_Update_Charac_Value
                        0x100513b1    0x60  Code  Gb  gatt_server.o [5]
Gatt_Update_Charac_Value_Ext
                        0x10053425   0x2fe  Code  Gb  gatt_server.o [5]
Generate_Non_Resolvable_Private_Address
                        0x10055e59    0x82  Code  Gb  rom_gap.o [5]
Get_GAP_Handle          0x10053345     0xa  Code  Gb  rom_gap_rom.o [5]
Get_Max_SecDb_Size      0x100541bd     0x4  Code  Gb  sdb.o [5]
Get_Random_Addr         0x10051b95    0x12  Code  Gb  hci.o [5]
Get_SecRec_Len_In_Words
                        0x100541c1     0xc  Code  Gb  rom_sdb.o [5]
Get_SecRecord_Size      0x10055897     0x4  Code  Gb  sdb.o [5]
Get_StaticRandAddr      0x10051541    0x10  Code  Gb  rom_gap_rom.o [5]
HAL_Flash_Store_Data    0x1005374d    0x4c  Code  Gb  hal.o [5]
HAL_Generate_Random_Bytes_To
                        0x1005372d    0x20  Code  Gb  hal.o [5]
HAL_Init                0x10053145    0x14  Code  Gb  hal.o [5]
HAL_Read_ConfigData     0x1004ef2d    0x70  Code  Gb  hal.o [5]
HAL_Set_TX_Power_Level  0x1004eb61    0x3a  Code  Gb  hal.o [5]
HAL_VTimerAcc_sysT32_ms
                        0x100567e9    0x20  Code  Gb  host_timer.o [5]
HAL_VTimerGetCurrentTime_sysT32
                        0x100531ad    0x12  Code  Gb  host_timer.o [5]
HAL_Write_ConfigData    0x100520b9    0x64  Code  Gb  hal.o [5]
HCI_Init                0x100530f1    0x4e  Code  Gb  hci.o [5]
HEAP$$Base              0x20005700           --   Gb  - Linker created -
HEAP$$Length            0x00000900           --   Gb  - Linker created -
HEAP$$Limit             0x20006000           --   Gb  - Linker created -
Hal_Get_Random_Number   0x10043e95    0x28  Code  Gb  hal.o [5]
Hal_Get_Random_Number32
                        0x10044747    0x12  Code  Gb  hal.o [5]
HardFault_Handler       0x1005bc6b     0x2  Code  Gb  BlueNRG1_it.o [1]
HeartRateService::HeartRateService(BLE &, unsigned short, HeartRateService::BodySensorLocation)
                        0x10048b91    0xd8  Code  Gb  main.o [1]
HeartRateService::HeartRateValueBytes::updateHeartRate(unsigned short)
                        0x10048dfd    0x1e  Code  Gb  main.o [1]
IDD_Initialize_Device_IDs
                        0x10051415   0x11a  Code  Gb  device_id_data.o [5]
Ind_Service_Change_Charac
                        0x100532d9    0x3e  Code  Gb  gatt_server.o [5]
Initialization guard variable for BlueNRG1Gap::getInstance()::m_instance
                        0x20004a00     0x4  Data  Gb  btle.o [1]
Initialization guard variable for BlueNRG1GattClient::getInstance()::m_instance
                        0x20004a08     0x4  Data  Gb  btle.o [1]
Initialization guard variable for BlueNRG1GattServer::getInstance()::m_instance
                        0x20004a04     0x4  Data  Gb  btle.o [1]
InvaliDate_Record       0x1005857d    0x1a  Code  Gb  rom_sdb.o [5]
Is_Address_Initialized  0x10051bad    0x16  Code  Gb  rom_ll_ll_routines.o [5]
Is_Flash_Write_On_Going
                        0x100417e9     0xa  Code  Gb  nvm.o [5]
L2CAP_Get_PDU_Len       0x1005256b     0xe  Code  Gb  l2cap.o [5]
L2CAP_Reset_To_Closed_State
                        0x1005aadd    0x34  Code  Gb  l2cap.o [5]
L2C_Build_Command_Reject_Pdu
                        0x10058cc5    0x7a  Code  Gb  l2cap.o [5]
L2C_Build_Connect_Update_Resp
                        0x1005083d    0xae  Code  Gb  l2cap.o [5]
L2C_Connection_Complete_Handler
                        0x1005a98b    0x24  Code  Gb  l2cap.o [5]
L2C_Connection_Complete_Signal_Handler
                        0x1005aab9    0x24  Code  Gb  l2cap.o [5]
L2C_Init                0x10053029    0x3e  Code  Gb  l2cap.o [5]
L2C_Rcv_Event_Handler   0x1005988b    0x3e  Code  Gb  l2cap.o [5]
L2C_Rcv_Event_Handler_ISR
                        0x1005a931    0x5a  Code  Gb  l2cap.o [5]
L2C_Send_Data           0x10052cbd    0x2c  Code  Gb  l2cap.o [5]
L2C_Signal_Channel_Handler
                        0x10058a69   0x194  Code  Gb  l2cap.o [5]
L2C_Signal_Channel_Handler_ISR
                        0x1005a9f9    0x24  Code  Gb  l2cap.o [5]
LE_TO_NRG_32            0x1005633b    0x14  Code  Gb  utils.o [5]
LL                      0x200037a0   0x270  Data  Gb  ll_privacy.o [5]
LL_Allow_Address_Setting
                        0x10055d95    0x42  Code  Gb  rom_ll_ll_routines.o [5]
LL_Check_And_Set_Addresses
                        0x100542a1   0x1b2  Code  Gb  rom_ll_ll_routines.o [5]
LL_Create_Connection    0x100549fd   0x24a  Code  Gb  ll_routines_master.o [5]
LL_Enable_Disable_Adv   0x10051eb1   0x1b0  Code  Gb  rom_ll_ll_routines.o [5]
LL_Enable_Disable_Scan  0x100545d5   0x24c  Code  Gb  ll_routines_master.o [5]
LL_Encrypt_Plain_Data   0x100447fd    0x4a  Code  Gb  ll_routines_support.o [5]
LL_Get_Address          0x100559ad    0x2a  Code  Gb  rom_ll_ll_routines.o [5]
LL_Get_AdvAddress       0x10055dd9    0x3a  Code  Gb  rom_ll_ll_routines.o [5]
LL_Get_ScanAddress      0x10055e19    0x3a  Code  Gb  rom_ll_ll_routines.o [5]
LL_Init                 0x10052e05   0x174  Code  Gb  rom_ll_ll_routines.o [5]
LL_LE_Add_Device_To_White_List
                        0x10054229    0x6a  Code  Gb  ll_privacy.o [5]
LL_LE_Clear_White_List  0x100541cd    0x16  Code  Gb  ll_privacy.o [5]
LL_LE_Set_Address_Resolution_Enable
                        0x100537f9    0x20  Code  Gb  ll_privacy.o [5]
LL_LE_Set_Resolvable_Private_Address_Timeout
                        0x10051555    0x16  Code  Gb  ll_privacy.o [5]
LL_RPADATABASE          0x20003438   0x368  Data  Gb  ll_privacy.o [5]
LL_Rcv_ACL_Data         0x10055261    0x2a  Code  Gb  rom_ll_ll_routines.o [5]
LL_Send_ACL_Data        0x1005694d    0x4e  Code  Gb  rom_ll_ll_routines.o [5]
LL_SetAddressResolutionEnable
                        0x10051595     0x8  Code  Gb  routines_support.o [5]
LL_Set_Adv_Data         0x10051a91    0x70  Code  Gb  rom_ll_ll_routines.o [5]
LL_Set_Adv_Params       0x10051bc5   0x2e2  Code  Gb  rom_ll_ll_routines.o [5]
LL_Set_Advertising_Buffers
                        0x10054499    0x82  Code  Gb  rom_ll_ll_routines.o [5]
LL_Set_DirectAddress    0x1005590d    0x5e  Code  Gb  rom_ll_ll_routines.o [5]
LL_Set_OwnAddress       0x10055971    0x38  Code  Gb  rom_ll_ll_routines.o [5]
LL_Set_Scan_Resp_Data   0x10051a31    0x5c  Code  Gb  rom_ll_ll_routines.o [5]
LL_Sleep_Req            0x10043ebd    0x4a  Code  Gb  rom_ll_routines_support.o [5]
LL_Start_Connection_Update
                        0x10052b2d   0x138  Code  Gb  ll_routines_master.o [5]
LL_Start_Encryption     0x1005960d    0xe4  Code  Gb  rom_ll_ll_routines_master.o [5]
LL_Update_Advertising_Buffers
                        0x10043f11    0x40  Code  Gb  rom_ll_ll_routines.o [5]
LL_Update_Scanning_Initiating_Buffers
                        0x10043f55    0x3c  Code  Gb  rom_ll_ll_routines.o [5]
LL_receive_data_patch   0x100428d5    0xba  Code  Gb  isr_routines.o [5]
LL_update_proc          0x10042ae5    0x54  Code  Gb  rom_ll_isr_routines.o [5]
LeftShift               0x10056b63    0x2c  Code  Lc  ssm_algo.o [5]
List_Circular_Get_Size  0x100532a5    0x12  Code  Gb  rom_list.o [5]
List_Circular_Insert_Tail
                        0x10050f0f     0xe  Code  Gb  rom_list.o [5]
List_Circular_Node_Present
                        0x100554a5    0x16  Code  Gb  rom_list.o [5]
List_Circular_Remove_Head
                        0x10056199    0x1a  Code  Gb  rom_list.o [5]
List_Circular_Remove_Node
                        0x100532b7    0x20  Code  Gb  rom_list.o [5]
LoadInt                 0x10049b7f    0x68  Code  Lc  xprintflarge.o [3]
MFT1B_Handler           0x10059dd9    0x26  Code  Gb  us_ticker_api.o [1]
MFT_ClearIT             0x100594fd     0xc  Code  Gb  BlueNRG1_mft.o [1]
MFT_Cmd                 0x100594b9    0x14  Code  Gb  BlueNRG1_mft.o [1]
MFT_EnableIT            0x100594e9    0x14  Code  Gb  BlueNRG1_mft.o [1]
MFT_GetCounter2         0x100594e5     0x4  Code  Gb  BlueNRG1_mft.o [1]
MFT_Init                0x1005941d    0x8c  Code  Gb  BlueNRG1_mft.o [1]
MFT_SetCounter2         0x100594e1     0x4  Code  Gb  BlueNRG1_mft.o [1]
MFT_StatusIT            0x10059509     0xe  Code  Gb  BlueNRG1_mft.o [1]
MFT_StructInit          0x100594a9    0x10  Code  Gb  BlueNRG1_mft.o [1]
Mem_assign              0x10052cf1    0x16  Code  Lc  mem_alloc.o [5]
MessageQueueGet         0x10056bdf    0x3c  Code  Lc  rtx_msgqueue.o [1]
MessageQueuePut         0x10056b91    0x4e  Code  Lc  rtx_msgqueue.o [1]
MessageQueueRemove      0x10056c1b    0x1e  Code  Lc  rtx_msgqueue.o [1]
NMI_Handler             0x1005bc69     0x2  Code  Gb  BlueNRG1_it.o [1]
NVIC_Init               0x10059e9d    0x66  Code  Gb  misc.o [1]
OS_Tick_AcknowledgeIRQ  0x100573b9     0xc  Code  Wk  os_systick.o [1]
OS_Tick_Enable          0x10048781    0x30  Code  Wk  os_systick.o [1]
OS_Tick_GetIRQn         0x10048779     0x6  Code  Wk  os_systick.o [1]
OS_Tick_Setup           0x1004872d    0x4c  Code  Wk  os_systick.o [1]
Osal_MemCmp             0x100440c5     0x8  Code  Gb  osal.o [1]
Osal_MemCpy             0x100440a5     0xc  Code  Gb  osal.o [1]
Osal_MemSet             0x100440b1    0x14  Code  Gb  osal.o [1]
PKA_Reset               0x10050ce1    0x16  Code  Gb  BlueNRG1_pka.o [1]
PM_Append_Fragment      0x1005987b    0x10  Code  Gb  pm.o [5]
PM_Clone_Pckt           0x10054f09    0x2a  Code  Gb  pm.o [5]
PM_Copy_Pckt_Data       0x10054ebf    0x14  Code  Gb  pm.o [5]
PM_Eng_Config           0x10055335    0x14  Code  Gb  pm.o [5]
PM_Extend_Pckt_Pdu_Size
                        0x10054ed3    0x36  Code  Gb  pm.o [5]
PM_Get_Available_Fragments
                        0x100553ed    0x34  Code  Gb  pm.o [5]
PM_Get_Fragments_Count  0x10054df1    0x12  Code  Gb  pm.o [5]
PM_Get_Pckt             0x10052579    0x7c  Code  Gb  pm.o [5]
PM_Init                 0x10052f85    0x66  Code  Gb  pm.o [5]
PM_Pckt_Cmp             0x10052501    0x6a  Code  Gb  pm.o [5]
PM_Release_Pckt         0x10052965    0x56  Code  Gb  pm.o [5]
PM_Set_Att_Pdu_Length   0x10052c6d    0x50  Code  Gb  pm.o [5]
PM_Set_ConnHandle       0x10052639     0xc  Code  Gb  pm.o [5]
PM_Write_Pckt_Data      0x1005569d    0x14  Code  Gb  pm.o [5]
PRIVWHIT_u8AddAddrInList
                        0x10044851   0x1ca  Code  Gb  ll_privacy.o [5]
PRIVWHIT_u8RemoveAddrInList
                        0x10044a29    0xba  Code  Gb  ll_privacy.o [5]
PRIVWHIT_u8SearchAddrInList
                        0x1004475d    0x9c  Code  Gb  ll_privacy.o [5]
PRIVWHIT_vInit_Struct   0x10050dcd    0x50  Code  Gb  ll_privacy.o [5]
PRIV_SearchAddrInWhiteList
                        0x100423c9    0x42  Code  Gb  ll_privacy.o [5]
PRIV_u32ProcessAdvPacket
                        0x10041d05   0x686  Code  Gb  ll_privacy.o [5]
PRIV_u8ResolvePrivateAddress
                        0x10043fb5    0xe0  Code  Gb  ll_privacy.o [5]
PRIV_vGeneratePrivateAddress
                        0x100558ab    0x62  Code  Gb  ll_privacy.o [5]
PayloadUnit::PayloadUnit()
                        0x10041cfb     0xa  Code  Gb  BlueNRG1Gap.o [1]
PendST                  0x200047d6     0x1  Data  Lc  os_systick.o [1]
PendSV_Handler          0x1005a133          Code  Gb  irq_cm0.o [1]
Prepare_Write_Resp      0x10052665   0x190  Code  Gb  att.o [5]
RAL_Isr                 0x100400c1  0x1706  Code  Gb  ll_isr.o [5]
Read_Blob_Resp          0x10053b5f   0x160  Code  Gb  att.o [5]
Read_By_Type_Resp       0x10053e65   0x33c  Code  Gb  att.o [5]
Read_Multi_Resp         0x10053cc1   0x1a0  Code  Gb  att.o [5]
Read_RecordValidity     0x100541ed     0xc  Code  Gb  rom_sdb.o [5]
Read_Resp               0x10053a19   0x146  Code  Gb  att.o [5]
Read_SDBRecord          0x100541fd    0x28  Code  Gb  rom_sdb.o [5]
Reclassify_All_Channels
                        0x10044669    0xb8  Code  Gb  ll_routines_master.o [5]
Region$$Table$$Base     0x1005b47c           --   Gb  - Linker created -
Region$$Table$$Limit    0x1005b4d4           --   Gb  - Linker created -
SDB_Add_Record          0x100585f5   0x1a8  Code  Gb  sdb.o [5]
SDB_Delete              0x100587a1   0x16a  Code  Gb  sdb.o [5]
SDB_Get_GattDb_End_Addr
                        0x1005859d    0x18  Code  Gb  sdb.o [5]
SDB_Get_GattDb_Start_Addr
                        0x10058565    0x12  Code  Gb  sdb.o [5]
SDB_Get_Number_Of_Records
                        0x100554f5    0x44  Code  Gb  rom_sdb.o [5]
SDB_Get_SecurityDb_Start_Addr
                        0x100541a9     0xe  Code  Gb  sdb.o [5]
SHT$$INIT_ARRAY$$Base   0x1005bc58           --   Gb  - Linker created -
SHT$$INIT_ARRAY$$Limit  0x1005bc60           --   Gb  - Linker created -
SHT$$PREINIT_ARRAY$$Base
                        0x1005bc58           --   Gb  - Linker created -
SHT$$PREINIT_ARRAY$$Limit
                        0x1005bc58           --   Gb  - Linker created -
SMA_Diversify           0x10056b35    0x2e  Code  Gb  ssm_algo.o [5]
SMA_Generate_CSRK       0x1005b061    0x20  Code  Gb  ssm_algo.o [5]
SMA_Generate_IRK        0x10056789    0x20  Code  Gb  ssm_algo.o [5]
SMP_Force_SC_Debug_Key_Usage
                        0x100545b5    0x20  Code  Gb  smp_scv42_isap.o [5]
SMP_Init                0x1005306d    0x6a  Code  Gb  sm_common.o [5]
SM_CMAC_Generate_Tag    0x1005634f    0xc4  Code  Lc  ssm_algo.o [5]
SM_Check_Encryption_KeySize
                        0x100568ab    0x20  Code  Gb  sm_common.o [5]
SM_Configure_WhiteList  0x10051b05    0x90  Code  Gb  rom_sdb.o [5]
SM_Connection_Complete_Handler
                        0x10059129    0x76  Code  Lc  sm_common.o [5]
SM_Generate_Resolvable_Private_Address
                        0x10055ee1    0x4e  Code  Gb  ssm_algo.o [5]
SM_Get_Link_Status      0x1005687d    0x2e  Code  Gb  sm_common.o [5]
SM_Get_Remote_Device_Info
                        0x100561b5    0x44  Code  Gb  sm_common.o [5]
SM_L2CAP_Encryption_changed_Handler_ISR
                        0x10059f15    0xc0  Code  Gb  sm_common.o [5]
SM_L2CAP_Handler        0x100598d5    0xda  Code  Gb  sm_common.o [5]
SM_L2CAP_Handler_ISR    0x10058ffd   0x126  Code  Gb  sm_common.o [5]
SM_Set_Authentication_req
                        0x1004efa1    0x7c  Code  Gb  sm_common.o [5]
SM_Validate_Signed_Packet
                        0x10055041    0x7c  Code  Gb  ssm_algo.o [5]
STORE_LE_16             0x100557a7     0x8  Code  Gb  utils.o [5]
STORE_LE_32             0x1005589b    0x10  Code  Gb  utils.o [5]
SVC_Handler             0x1005a0bd          Code  Gb  irq_cm0.o [1]
SafeBool<FunctionPointerWithContext<DiscoveredCharacteristic const *>>::operator void (SafeBool_::base::*)() const() const
                        0x1005241d    0x1c  Code  Gb  BlueNRG1GattConnectionClient.o [1]
SafeBool<FunctionPointerWithContext<DiscoveredService const *>>::operator void (SafeBool_::base::*)() const() const
                        0x10052439    0x1c  Code  Gb  BlueNRG1GattConnectionClient.o [1]
SafeBool_::base::trueTag() const
                        0x10044ceb     0x2  Code  Gb  GenericGattClient.o [1]
Sbox                    0x100591e4   0x100  Data  Gb  crypto.o [5]
Search_Handle           0x10053405    0x1e  Code  Gb  rom_gatt_server.o [5]
Search_In_Stat          0x10059837    0x20  Code  Gb  acl.o [5]
Search_Service_Handle   0x1005331d    0x24  Code  Gb  gatt_server.o [5]
Select_Next_Notification_Client
                        0x1005644d    0x4e  Code  Gb  gatt_server.o [5]
Send_Error_Resp         0x10052601    0x30  Code  Gb  rom_att.o [5]
Send_Notif_Or_Ind       0x10055581    0x76  Code  Gb  gatt_server.o [5]
SingletonPtr<rtos::Mutex>::get()::string
                        0x1005b980    0x14  Data  Gb  SPI.o [1]
SingletonPtr<rtos::Mutex>::get()::string (instance 2)
                        0x1005accc    0x48  Data  Gb  FATFileSystem.o [1]
SingletonPtr<rtos::Mutex>::operator ->()
                        0x1004c12d    0x50  Code  Gb  SPI.o [1]
Start_Gatt_Timer        0x10058179    0x20  Code  Gb  rom_gatt_server.o [5]
Stop_Gatt_Timer         0x1005815d    0x1c  Code  Gb  rom_gatt_server.o [5]
SysCtrl_PeripheralClockCmd
                        0x1004ab69    0x14  Code  Gb  BlueNRG1_sysCtrl.o [1]
SysTick_Handler         0x1005a13f          Code  Gb  irq_cm0.o [1]
SystemInit              0x100582b1    0xb6  Code  Gb  system_bluenrg1.o [1]
ThreadFlagsCheck        0x10046b89    0x50  Code  Lc  rtx_thread.o [1]
TimerInsert             0x10059519    0x3c  Code  Lc  rtx_timer.o [1]
Timer_ExpiryCallback    0x100417d5    0x10  Code  Gb  host_timer.o [5]
Timer_Init              0x10052dd1    0x2e  Code  Gb  host_timer.o [5]
Timer_StartOneShot      0x10055f85    0x22  Code  Gb  host_timer.o [5]
Timer_StartOneShot_sysTime32
                        0x1005680d    0x6a  Code  Gb  host_timer.o [5]
Timer_StopOneShot       0x10055f31    0x4e  Code  Gb  host_timer.o [5]
Timer_sysTime32_convMachineTime
                        0x100553cd    0x1c  Code  Gb  host_timer.o [5]
UART_ClearITPendingBit  0x1004adab     0x6  Code  Gb  BlueNRG1_uart.o [1]
UART_Cmd                0x1004ac2d    0x18  Code  Gb  BlueNRG1_uart.o [1]
UART_GetFlagStatus      0x1004ad77    0x22  Code  Gb  BlueNRG1_uart.o [1]
UART_GetITStatus        0x1004ad99    0x12  Code  Gb  BlueNRG1_uart.o [1]
UART_Handler            0x10048fab    0x3c  Code  Gb  serial_api.o [1]
UART_Init               0x1004ac45   0x128  Code  Gb  BlueNRG1_uart.o [1]
UART_RxFifoIrqLevelConfig
                        0x1004adb1    0x14  Code  Gb  BlueNRG1_uart.o [1]
UART_SendData           0x1004ad6d     0xa  Code  Gb  BlueNRG1_uart.o [1]
UUID::UUID(const UUID&)
                        0x100493e9    0x1a  Code  Gb  main.o [1]
UUID::operator ==(const UUID&) const
                        0x10052455    0x36  Code  Gb  GenericGattClient.o [1]
UUID::setupLong(unsigned char const *, UUID::ByteOrder_t)
                        0x100523e5    0x38  Code  Gb  BlueNRG1GattConnectionClient.o [1]
ValidLinkPermRequest    0x10054e49    0x50  Code  Gb  att.o [5]
Virtual function table for BlueNRG1Device
                        0x1005ada4    0x44  Data  Gb  BlueNRG1Device.o [1]
Virtual function table for BlueNRG1Gap
                        0x1005a2b8    0x8c  Data  Gb  BlueNRG1Gap.o [1]
Virtual function table for BlueNRG1GattClient
                        0x1005ae40    0x40  Data  Gb  BlueNRG1GattClient.o [1]
Virtual function table for BlueNRG1GattServer
                        0x1005af78    0x30  Data  Gb  BlueNRG1GattServer.o [1]
Virtual function table for CallChainOfFunctionPointersWithContext<Gap const *>
                        0x1005ba38    0x10  Data  Gb  btle.o [1]
Virtual function table for CallChainOfFunctionPointersWithContext<Gap::ConnectionCallbackParams_t const *>
                        0x1005ba18    0x10  Data  Gb  btle.o [1]
Virtual function table for CallChainOfFunctionPointersWithContext<Gap::DisconnectionCallbackParams_t const *>
                        0x1005ba28    0x10  Data  Gb  btle.o [1]
Virtual function table for CallChainOfFunctionPointersWithContext<Gap::TimeoutSource_t>
                        0x1005ba08    0x10  Data  Gb  btle.o [1]
Virtual function table for CallChainOfFunctionPointersWithContext<GattClient const *>
                        0x1005ba98    0x10  Data  Gb  GenericGattClient.o [1]
Virtual function table for CallChainOfFunctionPointersWithContext<GattHVXCallbackParams const *>
                        0x1005ba88    0x10  Data  Gb  GenericGattClient.o [1]
Virtual function table for CallChainOfFunctionPointersWithContext<GattReadCallbackParams const *>
                        0x1005ba68    0x10  Data  Gb  GenericGattClient.o [1]
Virtual function table for CallChainOfFunctionPointersWithContext<GattServer const *>
                        0x1005ba58    0x10  Data  Gb  btle.o [1]
Virtual function table for CallChainOfFunctionPointersWithContext<GattWriteCallbackParams const *>
                        0x1005ba78    0x10  Data  Gb  GenericGattClient.o [1]
Virtual function table for CallChainOfFunctionPointersWithContext<unsigned int>
                        0x1005ba48    0x10  Data  Gb  btle.o [1]
Virtual function table for Gap
                        0x1005a344    0x8c  Data  Gb  btle.o [1]
Virtual function table for GattClient
                        0x1005ae80    0x40  Data  Gb  GenericGattClient.o [1]
Virtual function table for GattServer
                        0x1005afd8    0x2c  Data  Gb  btle.o [1]
Virtual function table for mbed::Ticker
                        0x1005b994    0x14  Data  Gb  Ticker.o [1]
Virtual function table for mbed::Timeout
                        0x1005b9a8    0x14  Data  Gb  Timeout.o [1]
Virtual function table for mbed::TimerEvent
                        0x1005b9bc    0x14  Data  Gb  TimerEvent.o [1]
Virtual function table for std::exception
                        0x1005b9d0    0x14  Data  Gb  exception.o [4]
Virtual function table for std::length_error
                        0x1005b930    0x14  Data  Gb  BlueNRG1GattServer.o [1]
Virtual function table for std::logic_error
                        0x1005b958    0x14  Data  Gb  btle.o [1]
Virtual function table for std::out_of_range
                        0x1005b96c    0x14  Data  Gb  btle.o [1]
WindowWiden1            0x10044175     0xa  Code  Gb  rom_ll_timehandling.o [5]
WindowWiden2            0x1004418d    0x10  Code  Gb  rom_ll_timehandling.o [5]
Write_Client_Data       0x100583ad   0x1b2  Code  Gb  sdb.o [5]
Write_Cmd               0x100529c1   0x132  Code  Gb  att.o [5]
Write_Resp              0x100527f9   0x14a  Code  Gb  att.o [5]
Write_SDBRecord         0x10058911    0x68  Code  Lc  sdb.o [5]
_BlueNRG_Stack_Init_params
                        0x200048cc    0x34  Data  Gb  mem_alloc.o [5]
_BlueNRG_Stack_Initialization
                        0x1004eacd    0x7e  Code  Gb  bluenrg_main_func.o [5]
_Close_all              0x1005a5d5    0x68  Code  Gb  xcloseall.o [3]
_EncodingSb_Mbtowc      0x1004ea09    0x2c  Code  Gb  xencoding_sb.o [3]
_EncodingSb_Mbtowc::initial
                        0x1004ea3c     0x8  Data  Lc  xencoding_sb.o [3]
_EncodingSb_Wctomb      0x1004e9f5    0x14  Code  Gb  xencoding_sb.o [3]
_EncodingSb_Wctomb::initial
                        0x1004ea34     0x8  Data  Lc  xencoding_sb.o [3]
_Files                  0x20000418    0x20  Data  Gb  xfiles.o [3]
_Fofree                 0x1005a155    0x90  Code  Gb  xfofind.o [3]
_Fspos                  0x10059b71    0xe0  Code  Gb  xfspos.o [3]
_Fwprep                 0x10059fd9    0xc0  Code  Gb  xfwprep.o [3]
_GAP_Parse_Advertising_Report
                        0x1005a741    0x60  Code  Lc  gap.o [5]
_GenldLarge             0x1004a2fd   0x2c6  Code  Lc  xprintflarge.o [3]
_IsdstStr               0x200004e4     0x4  Data  Gb  setlocale.o [3]
_LdtobLarge             0x1004a079   0x24c  Code  Lc  xprintflarge.o [3]
_LitobLarge             0x10049f0d   0x12a  Code  Lc  xprintflarge.o [3]
_LocaleEncoding         0x1004e9e1     0xc  Code  Gb  setlocale.o [3]
_LocaleReturnString     0x20000504    0x50  Data  Lc  setlocale.o [3]
_Locale_Profile         0x200004e8    0x1c  Data  Gb  setlocale.o [3]
_Locale_aeabi_lconv     0x200005a4    0x38  Data  Gb  localeconv.o [3]
_Locale_lconv           0x20000554    0x50  Data  Gb  localeconv.o [3]
_Mbtowc                 0x1004bab5    0x1c  Code  Gb  xmbtowc.o [3]
_Nnl                    0x10059d05     0xc  Code  Gb  xfgpos.o [3]
_PrintfLarge            0x10049519   0x666  Code  Gb  xprintflarge.o [3]
_Prout                  0x1005b8bd    0x16  Code  Gb  xprout.o [3]
_PutcharsLarge          0x1004a5c7    0x30  Code  Lc  xprintflarge.o [3]
_PutstrLarge            0x10049be9   0x324  Code  Lc  xprintflarge.o [3]
_SNProut                0x1005b70d    0x1c  Code  Gb  xsnprout.o [3]
_TzoneStr               0x200004e0     0x4  Data  Gb  setlocale.o [3]
_Wctomb                 0x1004bb17    0x18  Code  Gb  xwctomb.o [3]
__ARM_common_switch8    0x100538ad    0x1a  Code  Gb  host_timer.o [5]
__NVIC_SetPriority      0x100581d5    0x36  Code  Lc  system_bluenrg1.o [1]
__aeabi_JMP_BUF_SIZE {Abs}
                        0x00000008           --   Gb  setjmp.o [7]
__aeabi_assert          0x1004f6b1    0x10  Code  Gb  assert.o [3]
__aeabi_atexit          0x100489ad     0xe  Code  Gb  cxxabi.o [4]
__aeabi_cdcmple         0x1004bd1d          Code  Gb  DblCmpLe.o [6]
__aeabi_d2iz            0x1004be11          Code  Gb  DblToI32.o [6]
__aeabi_d2uiz           0x1004be35          Code  Gb  DblToI32.o [6]
__aeabi_dadd            0x1004be99          Code  Gb  DblAddSub.o [6]
__aeabi_ddiv            0x1004bd4f          Code  Gb  DblDiv.o [6]
__aeabi_dmul            0x1004bb99          Code  Gb  DblMul.o [6]
__aeabi_dsub            0x1004bf5f          Code  Gb  DblAddSub.o [6]
__aeabi_errno_addr      0x10049035     0xa  Code  Gb  errno.o [3]
__aeabi_f2iz            0x1004a6a9          Code  Gb  FltToS32.o [6]
__aeabi_f2ulz           0x1005207d          Code  Gb  FltToU64.o [6]
__aeabi_fmul            0x1004a5f7          Code  Gb  FltMul.o [6]
__aeabi_i2d             0x1004be65          Code  Gb  I32ToDbl.o [6]
__aeabi_idiv            0x10043d49          Code  Gb  I32DivModFast.o [7]
__aeabi_idiv0           0x10044759          Code  Gb  IntDivZer.o [7]
__aeabi_idivmod         0x10043d49          Code  Gb  I32DivModFast.o [7]
__aeabi_ldiv0           0x1004ea45          Code  Gb  I64DivZer.o [7]
__aeabi_llsl            0x1004c0d5          Code  Gb  I64Shl.o [7]
__aeabi_lmul            0x1004c0f9          Code  Gb  I64Mul.o [7]
__aeabi_memclr          0x10044b9d          Code  Gb  ABImemset.o [7]
__aeabi_memclr4         0x10044ba1          Code  Gb  ABImemset.o [7]
__aeabi_memclr8         0x10044ba1          Code  Gb  ABImemset.o [7]
__aeabi_memcpy          0x10044af1          Code  Gb  ABImemcpy.o [7]
__aeabi_memcpy4         0x10044b19          Code  Wk  ABImemcpy.o [7]
__aeabi_memmove         0x10054c51          Code  Gb  ABImemmove.o [7]
__aeabi_memmove4        0x10054c51          Code  Gb  ABImemmove.o [7]
__aeabi_memmove8        0x10054c51          Code  Gb  ABImemmove.o [7]
__aeabi_memset          0x10044b4d          Code  Gb  ABImemset.o [7]
__aeabi_ui2d            0x1004be79          Code  Gb  I32ToDbl.o [6]
__aeabi_ui2f            0x1004f3e9          Code  Gb  I32ToFlt.o [6]
__aeabi_uidiv           0x10043d4f          Code  Gb  I32DivModFast.o [7]
__aeabi_uidivmod        0x10043d4f          Code  Gb  I32DivModFast.o [7]
__aeabi_uldivmod        0x1004bb2f          Code  Gb  I64DivMod.o [7]
__aeabi_uread4          0x10043f95          Code  Gb  uread4.o [7]
__aeabi_vec_ctor_nocookie_nodtor
                        0x10048953    0x22  Code  Gb  cxxabi.o [4]
__aeabi_vec_new_nocookie
                        0x10048975    0x38  Code  Gb  cxxabi.o [4]
__blue_RAM              0x200000c0   0x20c  Data  Lc  system_bluenrg1.o [1]
__blueflag_RAM          0x20000030     0x4  Data  Gb  system_bluenrg1.o [1]
__call_ctors            0x100487cd    0x18  Code  Gb  cppinit.o [3]
__call_dtors            0x10048821     0xa  Code  Gb  cppinit.o [3]
__cexit_call_dtors      0x1005bbed          Code  Gb  cexit.o [7]
__cexit_clearlocks      0x1005bbf5          Code  Gb  cexit.o [7]
__cexit_closeall        0x1005bbf1          Code  Gb  cexit.o [7]
__close                 0x100484b5    0x3c  Code  Gb  mbed_retarget.o [1]
__cstart_call_dtors     0x1005bc7c          Data  Gb  cstart_call_dtors.o [7]
__cstart_clearlocks     0x1005bc7c          Data  Gb  cstart_clearlocks.o [7]
__cstart_closeall       0x1005bc7c          Data  Gb  cstart_closeall.o [7]
__cxa_atexit            0x100487e5    0x3c  Code  Gb  cppinit.o [3]
__cxa_finalize          0x1004882b    0x38  Code  Gb  cppinit.o [3]
__cxa_guard_acquire     0x1004937d    0x1a  Code  Gb  cxxabiguard.o [4]
__cxa_guard_release     0x10049397    0x10  Code  Gb  cxxabiguard.o [4]
__cxa_pure_virtual      0x1005bc51     0x8  Code  Gb  xpurevirtual.o [3]
__data_GetMemChunk      0x10046775    0x2c  Code  Gb  xgetmemchunk.o [3]
__data_GetMemChunk::start
                        0x20004a28     0x4  Data  Lc  xgetmemchunk.o [3]
__dso_handle            0x20004a24     0x4  Data  Gb  cppinit.o [3]
__exit                  0x100467dd          Code  Gb  XXexit.o [7]
__iar_Errno             0x200004dc     0x4  Data  Gb  errno.o [3]
__iar_ForwardingLockFunctions {Abs}
                        0x00000000           --   Gb  xsyslock.o [3]
__iar_Locale_lconv_init
                        0x1004c04d    0x32  Code  Gb  localeconv.o [3]
__iar_Lockfilelock_mtx  0x100468c7    0x2c  Code  Gb  xsyslock_mtx.o [3]
__iar_Locksyslock_Malloc
                        0x100467a1     0xa  Code  Gb  xsyslock.o [3]
__iar_Locksyslock_StaticGuard
                        0x100467b5     0xa  Code  Gb  xsyslock.o [3]
__iar_Locksyslock_Stream
                        0x100467ab     0xa  Code  Gb  xsyslock.o [3]
__iar_Locksyslock_mtx   0x1004690f    0x24  Code  Gb  xsyslock_mtx.o [3]
__iar_Mbcurmax          0x1004bb0d     0xa  Code  Gb  xmbcurmax.o [3]
__iar_Memchr            0x1004baf5    0x18  Code  Gb  memchr.o [7]
__iar_Memset4_word      0x10044b6d          Code  Gb  ABImemset.o [7]
__iar_Memset_word       0x10044b59          Code  Gb  ABImemset.o [7]
__iar_Stderr            0x200003d8    0x40  Data  Gb  xfiles.o [3]
__iar_Stdin             0x20000358    0x40  Data  Gb  xfiles.o [3]
__iar_Stdout            0x20000398    0x40  Data  Gb  xfiles.o [3]
__iar_Strchr            0x1004bad1    0x14  Code  Gb  strchr.o [7]
__iar_Unlockfilelock_mtx
                        0x100468f3    0x1c  Code  Gb  xsyslock_mtx.o [3]
__iar_Unlocksyslock_Malloc
                        0x100467bf     0xa  Code  Gb  xsyslock.o [3]
__iar_Unlocksyslock_StaticGuard
                        0x100467d3     0xa  Code  Gb  xsyslock.o [3]
__iar_Unlocksyslock_Stream
                        0x100467c9     0xa  Code  Gb  xsyslock.o [3]
__iar_Unlocksyslock_mtx
                        0x10046933    0x16  Code  Gb  xsyslock_mtx.o [3]
__iar_clearlocks        0x100467e9    0x72  Code  Gb  xsyslock_mtx.o [3]
__iar_d2uiz             0x1004be39          Code  Gb  DblToI32.o [6]
__iar_data_init3        0x10047f09    0x28  Code  Gb  data_init.o [7]
__iar_dlfree            0x10046191   0x5ce  Code  Gb  dlmalloc.o [3]
__iar_dlib_perthread_access
                        0x1004adf5     0x2  Code  Gb  xtls.o [3]
__iar_dlmalloc          0x10045e99   0x2f4  Code  Gb  dlmalloc.o [3]
__iar_dynamic_initialization
                        0x10047bad    0x1c  Code  Gb  dynamic_init.o [7]
__iar_f2ulz             0x10052081          Code  Gb  FltToU64.o [6]
__iar_file_Mtxdst       0x10046aed     0x2  Code  Gb  mbed_boot.o [1]
__iar_file_Mtxinit      0x10046a69    0x56  Code  Gb  mbed_boot.o [1]
__iar_file_Mtxlock      0x10046aff     0x2  Code  Gb  mbed_boot.o [1]
__iar_file_Mtxunlock    0x10046b0f     0x2  Code  Gb  mbed_boot.o [1]
__iar_packbits_init_single3
                        0x1005af3d    0x3c  Code  Gb  packbits_init_single.o [7]
__iar_program_start     0x100469bb    0x3e  Code  Gb  mbed_boot.o [1]
__iar_system_Mtxdst     0x10046a5b     0x4  Code  Gb  mbed_boot.o [1]
__iar_system_Mtxinit    0x100469f9    0x62  Code  Gb  mbed_boot.o [1]
__iar_system_Mtxlock    0x10046a5f     0x4  Code  Gb  mbed_boot.o [1]
__iar_system_Mtxunlock  0x10046a63     0x4  Code  Gb  mbed_boot.o [1]
__iar_ui2d              0x1004be7d          Code  Gb  I32ToDbl.o [6]
__iar_ui2f              0x1004f3ed          Code  Gb  I32ToFlt.o [6]
__iar_zero_init3        0x1005af01    0x3c  Code  Gb  zero_init3.o [7]
__low_level_init        0x10047f03     0x4  Code  Gb  low_level_init.o [3]
__lseek                 0x100485c9    0x3c  Code  Gb  mbed_retarget.o [1]
__sti__routine          0x100492e1     0xe  Code  Lc  BlueNRG1Device.o [1]
__sti__routine          0x10047bc9    0x46  Code  Lc  main.o [1]
__vector_table          0x10040000          Data  Gb  startup_bluenrg1.o [1]
__write                 0x100484f5    0x90  Code  Gb  mbed_retarget.o [1]
_gm_                    0x20003f10   0x1d8  Data  Lc  dlmalloc.o [3]
_gpio_init_in           0x10048871     0x4  Code  Lc  mbed_gpio.o [1]
_gpio_init_out          0x10048875    0x30  Code  Lc  mbed_gpio.o [1]
_load_uuid              0x1005159d    0x26  Code  Lc  bluenrg_gatt_aci.o [5]
_main_obj               0x200023dc    0x48  Data  Gb  mbed_boot.o [1]
_main_stack             0x20002428  0x1000  Data  Gb  mbed_boot.o [1]
_main_thread_attr       0x200023b8    0x24  Data  Gb  mbed_boot.o [1]
abort                   0x10046769     0xa  Code  Gb  abort.o [3]
aci_att_exchange_mtu_resp_event
                        0x1005b515     0x2  Code  Wk  aci_events.o [5]
aci_att_exchange_mtu_resp_event_cb
                        0x1005b4f5    0x1c  Code  Gb  aci_events.o [5]
aci_att_exec_write_resp_event
                        0x1004b65d    0x16  Code  Gb  btle.o [1]
aci_att_exec_write_resp_event_cb
                        0x1005b729    0x18  Code  Gb  aci_events.o [5]
aci_att_find_by_type_value_resp_event
                        0x1004b6c5    0x1e  Code  Gb  btle.o [1]
aci_att_find_by_type_value_resp_event_cb
                        0x1005b1a1    0x1e  Code  Gb  aci_events.o [5]
aci_att_find_by_type_value_resp_event_push
                        0x10057be1    0x66  Code  Lc  gatt_client.o [5]
aci_att_find_info_resp_event
                        0x1004b701    0x24  Code  Gb  btle.o [1]
aci_att_find_info_resp_event_cb
                        0x1005b1c5    0x20  Code  Gb  aci_events.o [5]
aci_att_find_info_resp_event_push
                        0x10057b71    0x6c  Code  Lc  gatt_client.o [5]
aci_att_prepare_write_resp_event
                        0x1004b675    0x2a  Code  Gb  btle.o [1]
aci_att_prepare_write_resp_event_cb
                        0x1005b089    0x24  Code  Gb  aci_events.o [5]
aci_att_read_blob_resp_event
                        0x1005b20d     0x2  Code  Wk  aci_events.o [5]
aci_att_read_blob_resp_event_cb
                        0x1005b1e9    0x1e  Code  Gb  aci_events.o [5]
aci_att_read_by_group_type_resp_event
                        0x1004b5f5    0x24  Code  Gb  btle.o [1]
aci_att_read_by_group_type_resp_event_cb
                        0x1005b211    0x20  Code  Gb  aci_events.o [5]
aci_att_read_by_group_type_resp_event_push
                        0x10057c4d    0x6c  Code  Lc  gatt_client.o [5]
aci_att_read_by_type_resp_event
                        0x1004b619    0x24  Code  Gb  btle.o [1]
aci_att_read_by_type_resp_event_cb
                        0x1005b235    0x20  Code  Gb  aci_events.o [5]
aci_att_read_by_type_resp_event_push
                        0x10057b01    0x6c  Code  Lc  gatt_client.o [5]
aci_att_read_multiple_resp_event
                        0x1005b27d     0x2  Code  Wk  aci_events.o [5]
aci_att_read_multiple_resp_event_cb
                        0x1005b259    0x1e  Code  Gb  aci_events.o [5]
aci_att_read_resp_event
                        0x1004b63d    0x1e  Code  Gb  btle.o [1]
aci_att_read_resp_event_cb
                        0x1005b281    0x1e  Code  Gb  aci_events.o [5]
aci_att_write_resp_event
                        0x1005b2c9     0x2  Code  Wk  aci_events.o [5]
aci_att_write_resp_event_cb
                        0x1005b2a5    0x1e  Code  Gb  aci_events.o [5]
aci_event_fifo_push     0x100444f5    0x24  Code  Gb  aci_events.o [5]
aci_event_fifo_push_header
                        0x1004442d    0xc4  Code  Gb  aci_events.o [5]
aci_gap_addr_not_resolved_event
                        0x1005b761     0x2  Code  Wk  aci_events.o [5]
aci_gap_addr_not_resolved_event_cb
                        0x1005b745    0x18  Code  Gb  aci_events.o [5]
aci_gap_authorization_req_event
                        0x1005b781     0x2  Code  Wk  aci_events.o [5]
aci_gap_authorization_req_event_cb
                        0x1005b765    0x18  Code  Gb  aci_events.o [5]
aci_gap_authorization_req_event_push
                        0x10059b2d    0x40  Code  Lc  sm_common.o [5]
aci_gap_bond_lost_event
                        0x1005b7a1     0x2  Code  Wk  aci_events.o [5]
aci_gap_bond_lost_event_cb
                        0x1005b785    0x16  Code  Gb  aci_events.o [5]
aci_gap_configure_whitelist
                        0x1004f305     0xe  Code  Gb  bluenrg_gap_aci.o [5]
aci_gap_create_connection
                        0x1004f4e5    0x5a  Code  Gb  bluenrg_gap_aci.o [5]
aci_gap_device_found_event
                        0x1005b539     0x2  Code  Wk  aci_events.o [5]
aci_gap_device_found_event_cb
                        0x1005b519    0x1a  Code  Gb  aci_events.o [5]
aci_gap_init            0x1004c719    0x30  Code  Gb  bluenrg_gap_aci.o [5]
aci_gap_keypress_notification_event
                        0x1005b55d     0x2  Code  Wk  aci_events.o [5]
aci_gap_keypress_notification_event_cb
                        0x1005b53d    0x1c  Code  Gb  aci_events.o [5]
aci_gap_limited_discoverable_event
                        0x1005b7c1     0x2  Code  Wk  aci_events.o [5]
aci_gap_limited_discoverable_event_cb
                        0x1005b7a5    0x16  Code  Gb  aci_events.o [5]
aci_gap_numeric_comparison_value_event
                        0x1005b581     0x2  Code  Wk  aci_events.o [5]
aci_gap_numeric_comparison_value_event_cb
                        0x1005b561    0x1c  Code  Gb  aci_events.o [5]
aci_gap_pairing_complete_event
                        0x1005b2f1     0x2  Code  Wk  aci_events.o [5]
aci_gap_pairing_complete_event_cb
                        0x1005b2cd    0x1e  Code  Gb  aci_events.o [5]
aci_gap_pairing_complete_event_push
                        0x10059ae1    0x48  Code  Lc  sm_common.o [5]
aci_gap_pass_key_req_event
                        0x1005b7e1     0x2  Code  Wk  aci_events.o [5]
aci_gap_pass_key_req_event_cb
                        0x1005b7c5    0x18  Code  Gb  aci_events.o [5]
aci_gap_proc_complete_event
                        0x1004b759    0x2e  Code  Gb  btle.o [1]
aci_gap_proc_complete_event_cb
                        0x1005b2f5    0x20  Code  Gb  aci_events.o [5]
aci_gap_proc_complete_event_push
                        0x10057a9d    0x60  Code  Lc  gap.o [5]
aci_gap_set_authentication_requirement
                        0x1004c751    0x76  Code  Gb  bluenrg_gap_aci.o [5]
aci_gap_slave_security_initiated_event
                        0x1005b801     0x2  Code  Wk  aci_events.o [5]
aci_gap_slave_security_initiated_event_cb
                        0x1005b7e5    0x16  Code  Gb  aci_events.o [5]
aci_gatt_add_char       0x1004f057    0x3e  Code  Gb  bluenrg_gatt_aci.o [5]
aci_gatt_add_char_desc  0x1004f143    0x50  Code  Gb  bluenrg_gatt_aci.o [5]
aci_gatt_add_service    0x1004f021    0x36  Code  Gb  bluenrg_gatt_aci.o [5]
aci_gatt_allow_read     0x1004f1f3     0xc  Code  Gb  bluenrg_gatt_aci.o [5]
aci_gatt_attribute_modified_event
                        0x1004b5d1    0x24  Code  Gb  btle.o [1]
aci_gatt_attribute_modified_event_cb
                        0x1005b0b1    0x24  Code  Gb  aci_events.o [5]
aci_gatt_attribute_modified_event_push
                        0x10054fd9    0x64  Code  Lc  att.o [5]
aci_gatt_disc_all_char_of_service
                        0x1005248b     0x8  Code  Gb  bluenrg_gatt_aci.o [5]
aci_gatt_disc_char_by_uuid
                        0x10052493    0x28  Code  Gb  bluenrg_gatt_aci.o [5]
aci_gatt_disc_read_char_by_uuid_resp_event
                        0x1004b6a1    0x24  Code  Gb  btle.o [1]
aci_gatt_disc_read_char_by_uuid_resp_event_cb
                        0x1005b319    0x20  Code  Gb  aci_events.o [5]
aci_gatt_disc_read_char_by_uuid_resp_event_push
                        0x100577c5    0x6e  Code  Lc  gatt_client.o [5]
aci_gatt_error_resp_event
                        0x1005b361     0x2  Code  Wk  aci_events.o [5]
aci_gatt_error_resp_event_cb
                        0x1005b33d    0x20  Code  Gb  aci_events.o [5]
aci_gatt_error_resp_event_push
                        0x10057a39    0x5e  Code  Lc  gatt_client.o [5]
aci_gatt_indication_event
                        0x1005b389     0x2  Code  Wk  aci_events.o [5]
aci_gatt_indication_event_cb
                        0x1005b365    0x20  Code  Gb  aci_events.o [5]
aci_gatt_init           0x1004c711     0x8  Code  Gb  bluenrg_gatt_aci.o [5]
aci_gatt_notification_event
                        0x1005b3b1     0x2  Code  Wk  aci_events.o [5]
aci_gatt_notification_event_cb
                        0x1005b38d    0x20  Code  Gb  aci_events.o [5]
aci_gatt_prepare_write_permit_req_event
                        0x1005b8fb     0x2  Code  Wk  aci_events.o [5]
aci_gatt_prepare_write_permit_req_event_cb
                        0x1005b8e5    0x16  Code  Gb  aci_events.o [5]
aci_gatt_proc_complete_event
                        0x1004b6e5    0x1c  Code  Gb  btle.o [1]
aci_gatt_proc_complete_event_cb
                        0x1005b585    0x1c  Code  Gb  aci_events.o [5]
aci_gatt_proc_complete_event_push
                        0x100579f1    0x42  Code  Lc  gatt_client.o [5]
aci_gatt_proc_timeout_event
                        0x1005b821     0x2  Code  Wk  aci_events.o [5]
aci_gatt_proc_timeout_event_cb
                        0x1005b805    0x18  Code  Gb  aci_events.o [5]
aci_gatt_read_multi_permit_req_event
                        0x1005bb99     0x2  Code  Wk  aci_events.o [5]
aci_gatt_read_multi_permit_req_event_cb
                        0x1005bb89    0x10  Code  Gb  aci_events.o [5]
aci_gatt_read_multi_permit_req_event_push
                        0x10055757    0x50  Code  Lc  att.o [5]
aci_gatt_read_permit_req_event
                        0x1004b5b9    0x16  Code  Gb  btle.o [1]
aci_gatt_read_permit_req_event_cb
                        0x1005bb9b    0x10  Code  Gb  aci_events.o [5]
aci_gatt_read_permit_req_event_push
                        0x100556b1    0x38  Code  Lc  att.o [5]
aci_gatt_server_confirmation_event
                        0x1005bc23     0x2  Code  Wk  aci_events.o [5]
aci_gatt_server_confirmation_event_cb
                        0x1005bc19     0xa  Code  Gb  aci_events.o [5]
aci_gatt_set_desc_value
                        0x1004f1d7    0x1c  Code  Gb  bluenrg_gatt_aci.o [5]
aci_gatt_tx_pool_available_event
                        0x1005bbb9     0x2  Code  Wk  aci_events.o [5]
aci_gatt_tx_pool_available_event_cb
                        0x1005bbab     0xe  Code  Gb  aci_events.o [5]
aci_gatt_update_char_value
                        0x1004f1c3    0x14  Code  Gb  bluenrg_gatt_aci.o [5]
aci_gatt_write_permit_req_event
                        0x1004b57d    0x3c  Code  Gb  btle.o [1]
aci_gatt_write_permit_req_event_cb
                        0x1005b9e5    0x12  Code  Gb  aci_events.o [5]
aci_gatt_write_permit_req_event_push
                        0x10054f33    0x56  Code  Lc  att.o [5]
aci_gatt_write_resp     0x1004e82b    0x1c  Code  Gb  bluenrg_gatt_aci.o [5]
aci_hal_read_config_data
                        0x1004c749     0x8  Code  Gb  bluenrg_hal_aci.o [5]
aci_hal_scan_req_report_event
                        0x1005b3d9     0x2  Code  Wk  aci_events.o [5]
aci_hal_scan_req_report_event_cb
                        0x1005b3b5    0x1e  Code  Gb  aci_events.o [5]
aci_hal_set_tx_power_level
                        0x1004c709     0x8  Code  Gb  bluenrg_hal_aci.o [5]
aci_hal_write_config_data
                        0x1004f489     0x8  Code  Gb  bluenrg_hal_aci.o [5]
aci_l2cap_command_reject_event
                        0x1005b913     0x2  Code  Wk  aci_events.o [5]
aci_l2cap_command_reject_event_cb
                        0x1005b8fd    0x16  Code  Gb  aci_events.o [5]
aci_l2cap_connection_parameter_update_resp
                        0x1004e847    0x2a  Code  Gb  bluenrg_l2cap_aci.o [5]
aci_l2cap_connection_update_req_event
                        0x1004b725    0x32  Code  Gb  btle.o [1]
aci_l2cap_connection_update_req_event_cb
                        0x1005afa9    0x2c  Code  Gb  aci_events.o [5]
aci_l2cap_connection_update_req_event_push
                        0x10058c3d    0x82  Code  Lc  l2cap.o [5]
aci_l2cap_connection_update_resp_event
                        0x1005b5c5     0x2  Code  Wk  aci_events.o [5]
aci_l2cap_connection_update_resp_event_cb
                        0x1005b5a5    0x1c  Code  Gb  aci_events.o [5]
aci_l2cap_proc_timeout_event
                        0x1005b5e9     0x2  Code  Wk  aci_events.o [5]
aci_l2cap_proc_timeout_event_cb
                        0x1005b5c9    0x1c  Code  Gb  aci_events.o [5]
acl_list_full_on_packt  0x10054e99    0x26  Code  Gb  acl_list.o [5]
acl_list_get_pckt_count
                        0x100524fd     0x4  Code  Gb  acl_list.o [5]
acl_list_init           0x10050efd    0x12  Code  Gb  acl_list.o [5]
acl_list_insert_tail    0x10052645    0x20  Code  Gb  acl_list.o [5]
acl_list_is_empty       0x10054dc1    0x10  Code  Gb  acl_list.o [5]
acl_list_remove         0x10052943    0x20  Code  Gb  acl_list.o [5]
acl_list_remove_head    0x10054dd1    0x20  Code  Gb  acl_list.o [5]
adapt_slot              0x100559dd   0x250  Code  Lc  multi_master_time.o [5]
advTimeoutCB()          0x1004d705    0x1e  Code  Lc  BlueNRG1Gap.o [1]
advance_slave_timing_MultiSlave
                        0x10042b55   0x438  Code  Gb  multi_master_time.o [5]
advance_wakeup_timer    0x100417f9   0x4c4  Code  Gb  advance_wakeup_time.o [5]
anchor_replace          0x10043155    0x4a  Code  Gb  multi_master_time.o [5]
app_base                0x20000010     0x4  Data  Gb  system_bluenrg1.o [1]
app_base_block$$Base    0x20000010           --   Gb  - Linker created -
app_base_block$$Limit   0x20000014           --   Gb  - Linker created -
b                       0x200049fc     0x4  Data  Gb  us_ticker_api.o [1]
bleBaseUuid             0x1005b9f6    0x10  Data  Gb  att.o [5]
bleInitComplete(BLE::InitializationCompleteCallbackContext *)
                        0x10047c21   0x162  Code  Gb  main.o [1]
bluenrg1DeviceInstance  0x200002cc     0xc  Data  Gb  BlueNRG1Device.o [1]
btleInit                0x1004afad    0xd2  Code  Gb  btle.o [1]
btle_handler_pending    0x20004a0c     0x4  Data  Gb  btle.o [1]
button                  0x200002e8     0x8  Data  Gb  main.o [1]
cancel_current_master   0x10042689   0x198  Code  Gb  multi_master_time.o [5]
cancel_master           0x10043c1d    0xf8  Code  Gb  rom_ll_isr_routines.o [5]
cancel_slave            0x10043dfd    0x8e  Code  Gb  isr_routines.o [5]
carry                   0x200049f8     0x4  Data  Gb  us_ticker_api.o [1]
char_copy               0x100428c3    0x12  Code  Gb  hal.o [5]
check_access_address_patched
                        0x1005601d    0xb2  Code  Gb  ll_routines_master.o [5]
compute_tick            0x1004a90d    0x6a  Code  Lc  mbed_ticker_api.o [1]
core_util_are_interrupts_enabled
                        0x10048e69     0xe  Code  Gb  mbed_critical.o [1]
core_util_critical_section_enter
                        0x10048e85    0x58  Code  Wk  mbed_critical.o [1]
core_util_critical_section_exit
                        0x10048ff5    0x40  Code  Wk  mbed_critical.o [1]
core_util_is_isr_active
                        0x10048e77     0xe  Code  Gb  mbed_critical.o [1]
createBLEInstance()     0x100492ef     0x4  Code  Gb  BlueNRG1Device.o [1]
critical_interrupts_disabled
                        0x200049e0     0x1  Data  Lc  mbed_critical.o [1]
default_idle_hook()     0x10048e1d    0x14  Code  Lc  mbed_rtx_idle.o [1]
disconnectionCallback(Gap::DisconnectionCallbackParams_t const *)
                        0x10047c0f    0x12  Code  Gb  main.o [1]
div                     0x1004c0b5    0x20  Code  Gb  div.o [3]
dyn_alloc_a             0x200005e0  0x1bd0  Data  Gb  btle.o [1]
ebuf                    0x20004614    0x50  Data  Lc  xfiles.o [3]
encrypt                 0x100441e1    0x88  Code  Gb  rom_ll_routines_support.o [5]
equeue_create           0x100491d1    0x24  Code  Gb  equeue.o [1]
equeue_create_inplace   0x100491f5    0x5e  Code  Gb  equeue.o [1]
equeue_destroy          0x10049253    0x52  Code  Gb  equeue.o [1]
equeue_minutes          0x2000498c     0x4  Data  Lc  equeue_mbed.o [1]
equeue_mutex_create     0x1004af45     0x4  Code  Gb  equeue_mbed.o [1]
equeue_mutex_destroy    0x1004af49     0x2  Code  Gb  equeue_mbed.o [1]
equeue_sema_create      0x1004af4b    0x32  Code  Gb  equeue_mbed.o [1]
equeue_sema_destroy     0x1004af7d     0xa  Code  Gb  equeue_mbed.o [1]
equeue_tick             0x1004ae71    0xc4  Code  Gb  equeue_mbed.o [1]
equeue_tick_inited      0x200047d4     0x1  Data  Lc  equeue_mbed.o [1]
equeue_tick_update()    0x1004ae59    0x18  Code  Lc  equeue_mbed.o [1]
equeue_ticker           0x20004794    0x40  Data  Lc  equeue_mbed.o [1]
equeue_timer            0x20004990    0x20  Data  Lc  equeue_mbed.o [1]
error                   0x1004741d    0x28  Code  Wk  mbed_error.o [1]
error_in_progress       0x200047d5     0x1  Data  Lc  mbed_error.o [1]
eventQueue              0x200002f0    0x60  Data  Lc  main.o [1]
events                  0x200047d8    0x40  Data  Lc  mbed_us_ticker_api.o [1]
events::EventQueue::EventQueue(unsigned int, unsigned char *)
                        0x1004890d    0x2c  Code  Gb  EventQueue.o [1]
events::EventQueue::~EventQueue()
                        0x10048939     0x2  Code  Gb  EventQueue.o [1]
evnt_callback_pfunc     0x1005930c    0xe0  Data  Gb  aci_events.o [5]
exit                    0x10048649     0xa  Code  Gb  mbed_retarget.o [1]
fclose                  0x1005a455    0x7e  Code  Gb  fclose.o [3]
fflush                  0x10059cc5    0x38  Code  Gb  fflush.o [3]
fflushOne               0x10059c51    0x74  Code  Lc  fflush.o [3]
fifoBuf_getFreeHeader   0x10044bcd    0x6a  Code  Lc  aci_events.o [5]
fifoCtrl_init           0x100553c1     0xa  Code  Lc  aci_events.o [5]
file_mtx                0x20004898    0x20  Data  Lc  xsyslock_mtx.o [3]
filehandle_mutex        0x200045ec    0x28  Data  Lc  mbed_retarget.o [1]
filehandles             0x200045ac    0x40  Data  Lc  mbed_retarget.o [1]
fputc                   0x1005abf1    0x56  Code  Gb  fputc.o [3]
fseek                   0x1005a099    0x22  Code  Gb  fseek.o [3]
g_appearance_char_handle
                        0x200049da     0x2  Data  Gb  btle.o [1]
g_device_name_char_handle
                        0x200049dc     0x2  Data  Gb  btle.o [1]
g_gap_service_handle    0x200049d8     0x2  Data  Gb  btle.o [1]
g_preferred_connection_parameters_char_handle
                        0x200049de     0x2  Data  Gb  btle.o [1]
getGpioPin              0x1004ab81     0xc  Code  Gb  pin_device.o [1]
getHighPowerAndPALevelValue(signed char, signed char &, signed char &)
                        0x1004f1ff    0xda  Code  Gb  ble_utils.o [1]
get_adv_addr            0x1004239d    0x2c  Code  Gb  rom_ll_isr_routines.o [5]
get_advertiser          0x10052169    0x42  Code  Gb  multi_master_time.o [5]
get_connection_no       0x100550e9    0x80  Code  Gb  multi_master_time.o [5]
get_next_free_slot      0x10054465    0x2e  Code  Gb  multi_master_time.o [5]
get_scan_addr           0x10041ccd    0x2e  Code  Gb  rom_ll_isr_routines.o [5]
get_scan_connection     0x10052121    0x42  Code  Gb  multi_master_time.o [5]
get_us_ticker_data      0x1004a6e5     0x4  Code  Gb  mbed_us_ticker_api.o [1]
go_to_connect           0x10042411   0x25c  Code  Gb  rom_ll_isr_routines.o [5]
go_to_connect_master    0x10042f9d   0x182  Code  Gb  isr_routines.o [5]
gpio_dir                0x10048d8f    0x1e  Code  Gb  gpio_api.o [1]
gpio_init               0x10048dc7    0x22  Code  Gb  gpio_api.o [1]
gpio_init_in            0x100488a5     0xa  Code  Gb  mbed_gpio.o [1]
gpio_init_out           0x100488d3     0xc  Code  Gb  mbed_gpio.o [1]
gpio_init_out_ex        0x100488df    0x2e  Code  Gb  mbed_gpio.o [1]
gpio_mode               0x10048d71    0x1e  Code  Gb  gpio_api.o [1]
gpio_read               0x10048de9    0x12  Code  Gb  gpio_api.o [1]
gpio_write              0x10048db7    0x10  Code  Gb  gpio_api.o [1]
hal_get_hw_version      0x10052db1    0x1a  Code  Gb  hal.o [5]
hal_radio_activity_state_init
                        0x100553a5    0x18  Code  Gb  hal.o [5]
hci_acl_data_ind_event_int_cb
                        0x100596f9    0xdc  Code  Gb  acl.o [5]
hci_acl_data_tx_cmpl_event_int_cb
                        0x1005a1ed    0x90  Code  Gb  acl.o [5]
hci_data_buffer_overflow_event_cb
                        0x1004919f     0x2  Code  Gb  aci_events.o [5]
hci_disconnection_complete_event
                        0x1004b3b1    0x68  Code  Gb  btle.o [1]
hci_disconnection_complete_event_cb
                        0x1005b5ed    0x1c  Code  Gb  aci_events.o [5]
hci_disconnection_complete_event_int_cb
                        0x1005b12d    0x26  Code  Gb  aci_events.o [5]
hci_encryption_change_event
                        0x1005b62d     0x2  Code  Wk  aci_events.o [5]
hci_encryption_change_event_cb
                        0x1005b60d    0x1c  Code  Gb  aci_events.o [5]
hci_encryption_change_event_int_cb
                        0x1005b83d    0x1a  Code  Gb  aci_events.o [5]
hci_encryption_change_event_push
                        0x100443b9    0x46  Code  Lc  ll_routines_master.o [5]
hci_encryption_key_refresh_complete_event
                        0x1005b651     0x2  Code  Wk  aci_events.o [5]
hci_encryption_key_refresh_complete_event_cb
                        0x1005b631    0x1a  Code  Gb  aci_events.o [5]
hci_encryption_key_refresh_complete_event_int_cb
                        0x1005b857    0x1a  Code  Gb  aci_events.o [5]
hci_encryption_key_refresh_complete_event_push
                        0x10044371    0x42  Code  Lc  ll_routines_master.o [5]
hci_le_advertising_report_event
                        0x1004b53d    0x3e  Code  Gb  btle.o [1]
hci_le_advertising_report_event_cb
                        0x1005b655    0x1c  Code  Gb  aci_events.o [5]
hci_le_advertising_report_event_int_cb
                        0x1005b697    0x1e  Code  Gb  aci_events.o [5]
hci_le_advertising_report_event_push
                        0x100445e9    0x7c  Code  Lc  ll_routines_master.o [5]
hci_le_connection_complete_event
                        0x1004b43d    0xdc  Code  Gb  btle.o [1]
hci_le_connection_complete_event_cb
                        0x1005aec1    0x3a  Code  Gb  aci_events.o [5]
hci_le_connection_complete_event_int_cb
                        0x1005b153    0x26  Code  Gb  aci_events.o [5]
hci_le_connection_complete_event_push
                        0x100442f9    0x72  Code  Lc  ll_routines_master.o [5]
hci_le_connection_update_complete_event
                        0x1005b05d     0x2  Code  Wk  aci_events.o [5]
hci_le_connection_update_complete_event_cb
                        0x1005b031    0x28  Code  Gb  aci_events.o [5]
hci_le_connection_update_complete_event_push
                        0x1004451d    0x54  Code  Lc  ll_routines_master.o [5]
hci_le_direct_advertising_report_event
                        0x1005b695     0x2  Code  Wk  aci_events.o [5]
hci_le_direct_advertising_report_event_cb
                        0x1005b675    0x1c  Code  Gb  aci_events.o [5]
hci_le_direct_advertising_report_event_int_cb
                        0x1005b6b5    0x1e  Code  Gb  aci_events.o [5]
hci_le_direct_advertising_report_event_push
                        0x10044575    0x6e  Code  Lc  ll_routines_master.o [5]
hci_le_enhanced_connection_complete_event
                        0x1005ad5d     0x2  Code  Wk  aci_events.o [5]
hci_le_enhanced_connection_complete_event_cb
                        0x1005ad15    0x44  Code  Gb  aci_events.o [5]
hci_le_enhanced_connection_complete_event_int_cb
                        0x1005b179    0x26  Code  Gb  aci_events.o [5]
hci_le_enhanced_connection_complete_event_push
                        0x10044269    0x8c  Code  Lc  ll_routines_master.o [5]
hci_le_generate_dhkey_complete_event
                        0x1005b401     0x2  Code  Wk  aci_events.o [5]
hci_le_generate_dhkey_complete_event_cb
                        0x1005b3dd    0x1e  Code  Gb  aci_events.o [5]
hci_le_generate_dhkey_complete_event_int_cb
                        0x1005b871    0x1a  Code  Gb  aci_events.o [5]
hci_le_long_term_key_request_event
                        0x1005b429     0x2  Code  Wk  aci_events.o [5]
hci_le_long_term_key_request_event_cb
                        0x1005b405    0x20  Code  Gb  aci_events.o [5]
hci_le_long_term_key_request_event_int_cb
                        0x1005bbf9     0xc  Code  Gb  aci_events.o [5]
hci_le_read_local_p256_public_key_complete_event
                        0x1005b451     0x2  Code  Wk  aci_events.o [5]
hci_le_read_local_p256_public_key_complete_event_cb
                        0x1005b42d    0x1e  Code  Gb  aci_events.o [5]
hci_le_read_local_p256_public_key_complete_event_int_cb
                        0x1005b88b    0x1a  Code  Gb  aci_events.o [5]
hci_le_read_remote_used_features_complete_event
                        0x1005b101     0x2  Code  Wk  aci_events.o [5]
hci_le_read_remote_used_features_complete_event_cb
                        0x1005b0d9    0x22  Code  Gb  aci_events.o [5]
hci_le_set_advertise_enable
                        0x1004f3d5    0x14  Code  Gb  hci.o [5]
hci_le_set_advertising_data
                        0x1004f2ef    0x16  Code  Gb  hci.o [5]
hci_le_set_advertising_parameters
                        0x1004f315    0xba  Code  Gb  hci.o [5]
hci_le_set_event_mask   0x10051571    0x1e  Code  Gb  hci.o [5]
hci_le_set_random_address
                        0x1004f491    0x4a  Code  Gb  hci.o [5]
hci_le_set_scan_response_data
                        0x1004f2d9    0x16  Code  Gb  hci.o [5]
hci_load_connParams     0x100521b1    0x5a  Code  Gb  hci.o [5]
hci_number_of_completed_packets_event
                        0x1005bc2f     0x2  Code  Wk  aci_events.o [5]
hci_number_of_completed_packets_event_cb
                        0x1005bc25     0xa  Code  Gb  aci_events.o [5]
hci_read_remote_version_information_complete_event
                        0x1005b479     0x2  Code  Wk  aci_events.o [5]
hci_read_remote_version_information_complete_event_cb
                        0x1005b455    0x20  Code  Gb  aci_events.o [5]
hci_rx_acl_data         0x100597dd    0x5a  Code  Gb  hci.o [5]
hci_rx_acl_data_event   0x1005b92b     0x4  Code  Wk  aci_events.o [5]
hci_rx_acl_data_event_cb
                        0x1005b915    0x16  Code  Gb  aci_events.o [5]
hci_tx_acl_data_done    0x1005a285    0x34  Code  Gb  hci.o [5]
hrServicePtr            0x200002dc     0x4  Data  Lc  main.o [1]
hrmCounter              0x200002d8     0x1  Data  Lc  main.o [1]
idle_hook_fptr          0x20000350     0x4  Data  Lc  mbed_rtx_idle.o [1]
init_mparams            0x100450cd    0x2a  Code  Lc  dlmalloc.o [3]
init_top                0x100450f7    0x38  Code  Lc  dlmalloc.o [3]
initialize              0x1004a6f1    0xde  Code  Lc  mbed_ticker_api.o [1]
initlocks               0x1004685b    0x6c  Code  Lc  xsyslock_mtx.o [3]
int_evnt_callback_pfunc
                        0x100593ec    0x30  Data  Gb  aci_events.o [5]
interrupt_enable_counter
                        0x200049e4     0x4  Data  Lc  mbed_critical.o [1]
irq_handler             0x200049f0     0x4  Data  Lc  serial_api.o [1]
is_Buffer_All_Set_To    0x100537d9    0x1e  Code  Gb  utils.o [5]
is_slave                0x1004410d    0x2e  Code  Gb  multi_master_time.o [5]
isr_event_handler_patched
                        0x10043215   0x8ac  Code  Gb  ll_routines_master.o [5]
isr_postproc            0x10043ad1   0x130  Code  Gb  isr_postproc.o [5]
isr_postproc1           0x10042999   0x142  Code  Gb  rom_ll_isr_postproc.o [5]
isr_postproc_encrypt_data
                        0x1004313f    0x16  Code  Gb  rom_ll_isr_postproc.o [5]
led1                    0x200002e0     0x8  Data  Gb  main.o [1]
localeconv              0x1004c07f    0x18  Code  Gb  localeconv.o [3]
low_level_init_needed   0x20004858     0x1  Data  Lc  mbed_boot.o [1]
machine_time_trans      0x10042825    0x1c  Code  Gb  rom_ll_timehandling.o [5]
main                    0x10047d8d   0x118  Code  Gb  main.o [1]
mbed::Callback<void ()>::Callback(const mbed::Callback<void ()>&)
                        0x1004ea47    0x18  Code  Gb  Ticker.o [1]
mbed::Callback<void ()>::Callback(void (*)())
                        0x1004c3cd    0x30  Code  Gb  utest_shim.o [1]
mbed::Callback<void ()>::call() const::string
                        0x1005bc38     0x8  Data  Gb  UDPSocket.o [1]
mbed::Callback<void ()>::call() const::string (instance 2)
                        0x1005ad60    0x44  Data  Gb  ATCmdParser.o [1]
mbed::Callback<void ()>::~Callback()
                        0x1005a72d    0x12  Code  Gb  SerialBase.o [1]
mbed::Callback<void (int)>::Callback(void (*)(int))
                        0x100491a1    0x30  Code  Gb  EventQueue.o [1]
mbed::FileBase::_head   0x20004960     0x4  Data  Gb  FileBase.o [1]
mbed::FileBase::_mutex  0x20004964    0x28  Data  Gb  FileBase.o [1]
mbed::FileBase::getPathType()
                        0x1004ae55     0x4  Code  Gb  FileBase.o [1]
mbed::FileBase::lookup(char const *, unsigned int)
                        0x1004adf9    0x58  Code  Gb  FileBase.o [1]
mbed::FilePath::FilePath(char const *)
                        0x10049045    0x40  Code  Gb  FilePath.o [1]
mbed::FilePath::fileName()
                        0x10049085     0x4  Code  Gb  FilePath.o [1]
mbed::FilePath::fileSystem()
                        0x10049089    0x20  Code  Gb  FilePath.o [1]
mbed::Ticker::attach(mbed::Callback<void ()>, float)
                        0x1004f409    0x80  Code  Gb  BlueNRG1Gap.o [1]
mbed::Ticker::detach()  0x1004c3fd    0x66  Code  Gb  Ticker.o [1]
mbed::Ticker::handler()
                        0x1004c49b    0x2a  Code  Gb  Ticker.o [1]
mbed::Ticker::setup(unsigned long long)
                        0x1004c463    0x38  Code  Gb  Ticker.o [1]
mbed::Ticker::~Ticker()
                        0x1005a6a1    0x24  Code  Gb  btle.o [1]
mbed::Timeout::Timeout()
                        0x100509b5    0x2c  Code  Gb  btle.o [1]
mbed::Timeout::handler()
                        0x1005b005    0x2c  Code  Gb  Timeout.o [1]
mbed::Timer::Timer()    0x1004c27d    0x2a  Code  Gb  Timer.o [1]
mbed::Timer::read_ms()  0x1004c2d5    0x30  Code  Gb  Timer.o [1]
mbed::Timer::reset()    0x1004c335    0x24  Code  Gb  Timer.o [1]
mbed::Timer::slicetime()
                        0x1004c305    0x30  Code  Gb  Timer.o [1]
mbed::Timer::start()    0x1004c2a7    0x2e  Code  Gb  Timer.o [1]
mbed::TimerEvent::TimerEvent() [subobject]
                        0x1004c359     0x4  Code  Gb  TimerEvent.o [1]
mbed::TimerEvent::insert_absolute(unsigned long long)
                        0x1004c3ad    0x10  Code  Gb  TimerEvent.o [1]
mbed::TimerEvent::irq(unsigned int)
                        0x1004c383     0xa  Code  Gb  TimerEvent.o [1]
mbed::TimerEvent::remove()
                        0x1004c3bd     0xe  Code  Gb  TimerEvent.o [1]
mbed::TimerEvent::~TimerEvent() [subobject]
                        0x1004c35d     0x4  Code  Gb  TimerEvent.o [1]
mbed_assert_internal    0x1004abd9    0x20  Code  Gb  mbed_assert.o [1]
mbed_die                0x100490a9    0xf4  Code  Wk  mbed_board.o [1]
mbed_error_printf       0x10048451    0x10  Code  Gb  mbed_board.o [1]
mbed_error_vfprintf     0x10048461    0x4a  Code  Gb  mbed_board.o [1]
mbed_heap_size          0x20004a14     0x4  Data  Gb  mbed_retarget.o [1]
mbed_heap_start         0x20004a10     0x4  Data  Gb  mbed_retarget.o [1]
mbed_main               0x10046b85     0x2  Code  Wk  mbed_boot.o [1]
mbed_sdk_init           0x10047f31     0x2  Code  Gb  mbed_overrides.o [1]
mbed_stack_isr_size     0x20004870     0x4  Data  Gb  mbed_boot.o [1]
mbed_stack_isr_start    0x2000486c     0x4  Data  Gb  mbed_boot.o [1]
mbed_start_main         0x1004694d    0x3c  Code  Gb  mbed_boot.o [1]
mem_alloc_ctx_init      0x10052d09    0xa0  Code  Gb  mem_alloc.o [5]
mem_alloc_ctx_p         0x20000354     0x4  Data  Gb  mem_alloc.o [5]
memcmp                  0x10044ba5    0x28  Code  Gb  memcmp.o [7]
memset                  0x1004af87    0x14  Code  Gb  memset.o [3]
microseconds_to_machine_time
                        0x100441ad     0x8  Code  Gb  routines_support.o [5]
modulo_37               0x10042b3d    0x14  Code  Gb  rom_ll_routines_support.o [5]
mparams                 0x200049b0    0x18  Data  Lc  dlmalloc.o [3]
mtx                     0x200048b8    0x14  Data  Lc  xsyslock_mtx.o [3]
next_abi_dtor_rec       0x20004a20     0x4  Data  Lc  cppinit.o [3]
nsar_init               0x1005531d    0x14  Code  Gb  multi_master_time.o [5]
nsar_insertSlotListEntry
                        0x100566c1    0x18  Code  Lc  multi_master_time.o [5]
nsar_searchBestFreeSlot
                        0x100566dd    0xa8  Code  Lc  multi_master_time.o [5]
nsar_updateBestFreeSlot
                        0x10056b13    0x22  Code  Lc  multi_master_time.o [5]
nsar_updateSlotListEntry
                        0x10056655    0x66  Code  Lc  multi_master_time.o [5]
obuf                    0x20004664    0x50  Data  Lc  xfiles.o [3]
operator delete (void *)
                        0x1004868b     0xe  Code  Gb  mbed_retarget.o [1]
operator delete[] (void *)
                        0x10048699     0xe  Code  Gb  mbed_retarget.o [1]
operator new (unsigned int)
                        0x10048655    0x16  Code  Gb  mbed_retarget.o [1]
operator new (unsigned int, std::nothrow_t const &)
                        0x10048683     0x8  Code  Gb  mbed_retarget.o [1]
operator new[] (unsigned int)
                        0x1004866d    0x16  Code  Gb  mbed_retarget.o [1]
osDelay                 0x1004aba1    0x24  Code  Gb  rtx_delay.o [1]
osEventFlagsDelete      0x1004c699    0x32  Code  Gb  rtx_evflags.o [1]
osEventFlagsNew         0x1004c645    0x46  Code  Gb  rtx_evflags.o [1]
osEventObs              0x200049ec     0x4  Data  Gb  rt_OsEventObserver.o [1]
osKernelGetState        0x100476dd    0x3c  Code  Gb  rtx_kernel.o [1]
osKernelInitialize      0x1004768d    0x36  Code  Gb  rtx_kernel.o [1]
osKernelStart           0x10047719    0x4e  Code  Gb  rtx_kernel.o [1]
osMessageQueueGet       0x10057199    0x9c  Code  Gb  rtx_msgqueue.o [1]
osMessageQueueNew       0x100570a5    0x4e  Code  Gb  rtx_msgqueue.o [1]
osMessageQueuePut       0x100570f5    0xa2  Code  Gb  rtx_msgqueue.o [1]
osMutexAcquire          0x10047b19    0x28  Code  Gb  rtx_mutex.o [1]
osMutexDelete           0x10047b75    0x24  Code  Gb  rtx_mutex.o [1]
osMutexNew              0x10047acd    0x46  Code  Gb  rtx_mutex.o [1]
osMutexRelease          0x10047b41    0x24  Code  Gb  rtx_mutex.o [1]
osRegisterForOsEvents::has_been_called
                        0x200049e8     0x1  Data  Lc  rt_OsEventObserver.o [1]
osRtxConfig             0x1005a56c    0x68  Data  Gb  rtx_lib.o [1]
osRtxErrorNotify        0x10047f55    0x60  Code  Gb  mbed_rtx_handlers.o [1]
osRtxEventFlagsPostProcess
                        0x1004c515    0x46  Code  Gb  rtx_evflags.o [1]
osRtxIdleThread         0x10047f4d     0x6  Code  Gb  mbed_rtx_handlers.o [1]
osRtxInfo               0x20000438    0xa4  Data  Gb  rtx_kernel.o [1]
osRtxMemoryAlloc        0x10048385    0x70  Code  Wk  rtx_memory.o [1]
osRtxMemoryFree         0x100483f5    0x4e  Code  Wk  rtx_memory.o [1]
osRtxMemoryInit         0x100486e9    0x3e  Code  Wk  rtx_memory.o [1]
osRtxMemoryPoolAlloc    0x100482ff    0x40  Code  Gb  rtx_mempool.o [1]
osRtxMemoryPoolFree     0x1004833f    0x46  Code  Gb  rtx_mempool.o [1]
osRtxMemoryPoolInit     0x100482b9    0x46  Code  Gb  rtx_mempool.o [1]
osRtxMessageQueuePostProcess
                        0x10056c39    0xfe  Code  Gb  rtx_msgqueue.o [1]
osRtxMutexOwnerRelease  0x1004778d    0x4e  Code  Gb  rtx_mutex.o [1]
osRtxPendSV_Handler     0x100572c7    0x76  Code  Gb  rtx_system.o [1]
osRtxPostProcess        0x1005733d    0x66  Code  Gb  rtx_system.o [1]
osRtxThreadBlock        0x10046de9    0x30  Code  Gb  rtx_thread.o [1]
osRtxThreadDelayRemove  0x10046c71    0x66  Code  Gb  rtx_thread.o [1]
osRtxThreadDelayTick    0x10046cd7   0x10c  Code  Gb  rtx_thread.o [1]
osRtxThreadDispatch     0x10046e39    0x6a  Code  Gb  rtx_thread.o [1]
osRtxThreadFree         0x10047239    0x44  Code  Lc  rtx_thread.o [1]
osRtxThreadListGet      0x10046c09    0x1a  Code  Gb  rtx_thread.o [1]
osRtxThreadListPut      0x10046bd9    0x30  Code  Gb  rtx_thread.o [1]
osRtxThreadListRemove   0x10046c47    0x1a  Code  Gb  rtx_thread.o [1]
osRtxThreadListSort     0x10046c23    0x24  Code  Gb  rtx_thread.o [1]
osRtxThreadPostProcess  0x10046f7b    0x54  Code  Gb  rtx_thread.o [1]
osRtxThreadReadyPut     0x10046c61    0x10  Code  Gb  rtx_thread.o [1]
osRtxThreadRegPtr       0x10046de3     0x6  Code  Gb  rtx_thread.o [1]
osRtxThreadStackCheck   0x100473f1    0x2c  Code  Wk  rtx_thread.o [1]
osRtxThreadSwitch       0x10046e19    0x18  Code  Gb  rtx_thread.o [1]
osRtxThreadWaitEnter    0x10046ed5    0xa6  Code  Gb  rtx_thread.o [1]
osRtxThreadWaitExit     0x10046ea3    0x32  Code  Gb  rtx_thread.o [1]
osRtxTick_Handler       0x10057255    0x72  Code  Gb  rtx_system.o [1]
osRtxTimerThread        0x100595b5    0x54  Code  Wk  rtx_timer.o [1]
osRtxTimerTick          0x10059555    0x5a  Code  Gb  rtx_timer.o [1]
osRtxUserSVC            0x1005bc60     0x4  Data  Wk  rtx_lib.o [1]
osThreadContextNew      0x10047331    0x50  Code  Gb  rtx_thread.o [1]
osThreadExit            0x100473c9    0x16  Code  Gb  rtx_thread.o [1]
osThreadGetId           0x100473a5    0x24  Code  Gb  rtx_thread.o [1]
osThreadGetName         0x10047381    0x24  Code  Gb  rtx_thread.o [1]
osThreadNew             0x10047325     0xa  Code  Gb  rtx_thread.o [1]
os_idle_thread_attr     0x1005a804    0x24  Data  Lc  rtx_lib.o [1]
os_idle_thread_cb       0x20004704    0x48  Data  Lc  rtx_lib.o [1]
os_idle_thread_stack    0x20003d10   0x200  Data  Lc  rtx_lib.o [1]
os_isr_queue            0x20004818    0x40  Data  Lc  rtx_lib.o [1]
os_timer_mq_attr        0x1005a84c    0x18  Data  Lc  rtx_lib.o [1]
os_timer_mq_cb          0x20004900    0x34  Data  Lc  rtx_lib.o [1]
os_timer_mq_data        0x200046b4    0x50  Data  Lc  rtx_lib.o [1]
os_timer_thread_attr    0x1005a828    0x24  Data  Lc  rtx_lib.o [1]
os_timer_thread_cb      0x2000474c    0x48  Data  Lc  rtx_lib.o [1]
os_timer_thread_stack   0x20003a10   0x300  Data  Lc  rtx_lib.o [1]
ota_sw_activation       0x20000004     0x4  Data  Gb  system_bluenrg1.o [1]
ota_sw_activation_block$$Base
                        0x20000004           --   Gb  - Linker created -
ota_sw_activation_block$$Limit
                        0x20000008           --   Gb  - Linker created -
pre_main                0x10046989    0x32  Code  Gb  mbed_boot.o [1]
prepend_alloc           0x1004513d   0x35e  Code  Lc  dlmalloc.o [3]
printf                  0x10048ce5    0x24  Code  Gb  printf.o [3]
putchar                 0x1005b8d5    0x10  Code  Gb  putchar.o [3]
rcon                    0x100592e4    0x28  Data  Gb  crypto.o [5]
read_rssi               0x100431a5    0x68  Code  Gb  ll_routines.o [5]
remove                  0x10048605    0x40  Code  Gb  mbed_retarget.o [1]
request_connect_slot    0x10055fa9    0x6c  Code  Gb  multi_master_time.o [5]
request_scan_slot       0x10055d0d    0x80  Code  Gb  multi_master_time.o [5]
reschedule_wakeup_slot  0x1005516d    0x9c  Code  Gb  multi_master_time.o [5]
rtos::Mutex::Mutex()    0x1004c17d    0x4a  Code  Gb  Mutex.o [1]
rtos::Mutex::lock(unsigned int)
                        0x1004c1cd    0x16  Code  Gb  Mutex.o [1]
rtos::Mutex::unlock()   0x1004c1e3    0x10  Code  Gb  Mutex.o [1]
rtos::Thread::wait(unsigned int)
                        0x10048e55     0x8  Code  Gb  Thread.o [1]
rtos_idle_loop          0x10048e31     0xa  Code  Gb  mbed_rtx_idle.o [1]
savedMSP                0x20000008     0x4  Data  Gb  system_bluenrg1.o [1]
savedMSP_block$$Base    0x20000008           --   Gb  - Linker created -
savedMSP_block$$Limit   0x2000000c           --   Gb  - Linker created -
scale                   0x1004a037    0x42  Code  Lc  xprintflarge.o [3]
schedule_advertise_slot
                        0x10054521    0x8c  Code  Gb  multi_master_time.o [5]
schedule_interrupt      0x1004a981    0x68  Code  Lc  mbed_ticker_api.o [1]
segment_holding         0x100450b1    0x1c  Code  Lc  dlmalloc.o [3]
send_gatt_event         0x100579ab    0x46  Code  Gb  gatt_client.o [5]
serial_baud             0x10048fa5     0x6  Code  Gb  serial_api.o [1]
serial_init             0x10048f19    0x76  Code  Gb  serial_api.o [1]
serial_irq_ids          0x200049f4     0x4  Data  Lc  serial_api.o [1]
serial_putc             0x10048f8f    0x16  Code  Gb  serial_api.o [1]
set_freq                0x100531dd    0x5e  Code  Gb  rom_ll_timehandling.o [5]
set_sca                 0x10044155    0x1c  Code  Gb  rom_ll_timehandling.o [5]
set_string              0x10042f8d    0x10  Code  Gb  hal.o [5]
signalEventsToProcess   0x1004c7cd    0x24  Code  Gb  BlueNRG1_ble.o [1]
singleton_mutex_attr    0x2000485c    0x10  Data  Gb  mbed_boot.o [1]
singleton_mutex_id      0x20004874     0x4  Data  Gb  mbed_boot.o [1]
singleton_mutex_obj     0x20004878    0x1c  Data  Gb  mbed_boot.o [1]
slave_advance           0x100569a1    0xf0  Code  Gb  routines_support.o [5]
sleep_manager_lock_deep_sleep
                        0x1004aa99     0x2  Code  Gb  mbed_sleep_manager.o [1]
sleep_manager_unlock_deep_sleep
                        0x1004aa9b     0x2  Code  Gb  mbed_sleep_manager.o [1]
sm_Calculate_Hash       0x100567b1    0x38  Code  Lc  ssm_algo.o [5]
sm_Generate_SubKeys     0x100568cb    0x80  Code  Lc  ssm_algo.o [5]
smp_Add_To_Database     0x10058eb1   0x146  Code  Gb  sm_common.o [5]
smp_Find_Remote_Device_Index
                        0x100591a5    0x3a  Code  Gb  sm_common.o [5]
smp_Keys_Distribution_Complete
                        0x100599b5    0x46  Code  Lc  sm_common.o [5]
smp_OOB_Clear_Remote_Data_Entry_by_Index
                        0x10059aa5    0x1a  Code  Gb  sm_common.o [5]
smp_Pairing_Completed   0x100599fd    0xa2  Code  Gb  sm_common.o [5]
smp____SC_hci_le_generate_dhkey_complete_evt_hndl
                        0x1005b105    0x22  Code  Gb  smp_scv42_isap.o [5]
smp____SC_hci_le_read_local_p256_public_key_complete_evt_hndl
                        0x1005ade9    0x3c  Code  Gb  smp_scv42_isap.o [5]
smp____SC_initialize    0x1005534d    0x50  Code  Gb  smp_scv42_isap.o [5]
smp____SC_is_Debug_Key_Usage_Forced
                        0x1005ae2d    0x10  Code  Gb  smp_scv42_isap.o [5]
smp____SC_is_any_other_SC_Pairing_Ongoing
                        0x10055cd5    0x34  Code  Gb  smp_scv42_isap.o [5]
smp____SC_submit_ECC_PK_generation_request
                        0x10059ac5    0x16  Code  Gb  smp_scv42_isap.o [5]
stacklib_flash_data     0x10067000   0x800  Data  Lc  btle.o [1]
stacklib_stored_device_id_data
                        0x10067800    0x38  Data  Lc  btle.o [1]
start_timebase          0x10055c35    0x92  Code  Gb  multi_master_time.o [5]
std::_String_base::_XlenAbort() const
                        0x10056a9d     0x8  Code  Gb  string2.o [4]
std::_String_base::_XranAbort() const
                        0x10056aa5     0x8  Code  Gb  string2.o [4]
std::_Tmap_traits<unsigned short, unsigned short, std::less<unsigned short>, std::allocator<std::pair<unsigned short const, unsigned short>>, (bool)0>::_Tmap_traits(std::less<unsigned short>)
                        0x10055255     0xc  Code  Gb  btle.o [1]
std::_Tmap_traits<unsigned short, unsigned short, std::less<unsigned short>, std::allocator<std::pair<unsigned short const, unsigned short>>, (bool)0>::_Tmap_traits(std::less<unsigned short>) [subobject]
                        0x10052ce9     0x8  Code  Gb  btle.o [1]
std::_Tree<std::_Tmap_traits<unsigned short, unsigned short, std::less<unsigned short>, std::allocator<std::pair<unsigned short const, unsigned short>>, (bool)0>>::_Erase(std::_Tree_nod<std::_Tmap_traits<unsigned short, unsigned short, std::less<unsigned short>, std::allocator<std::pair<unsigned short const, unsigned short>>, (bool)0>>::_Node *)
                        0x1005a549    0x24  Code  Gb  btle.o [1]
std::_Tree<std::_Tmap_traits<unsigned short, unsigned short, std::less<unsigned short>, std::allocator<std::pair<unsigned short const, unsigned short>>, (bool)0>>::_Insert(bool, std::_Tree_nod<std::_Tmap_traits<unsigned short, unsigned short, std::less<unsigned short>, std::allocator<std::pair<unsigned short const, unsigned short>>, (bool)0>>::_Node *, std::pair<unsigned short const, unsigned short> const &)
                        0x100515c5   0x110  Code  Gb  BlueNRG1GattServer.o [1]
std::_Tree<std::_Tmap_traits<unsigned short, unsigned short, std::less<unsigned short>, std::allocator<std::pair<unsigned short const, unsigned short>>, (bool)0>>::_Lrotate(std::_Tree_nod<std::_Tmap_traits<unsigned short, unsigned short, std::less<unsigned short>, std::allocator<std::pair<unsigned short const, unsigned short>>, (bool)0>>::_Node *)
                        0x1005383d    0x38  Code  Gb  btle.o [1]
std::_Tree<std::_Tmap_traits<unsigned short, unsigned short, std::less<unsigned short>, std::allocator<std::pair<unsigned short const, unsigned short>>, (bool)0>>::_Make_iter(std::_Tree<std::_Tmap_traits<unsigned short, unsigned short, std::less<unsigned short>, std::allocator<std::pair<unsigned short const, unsigned short>>, (bool)0>>::const_iterator) const
                        0x10057f31     0x4  Code  Gb  btle.o [1]
std::_Tree<std::_Tmap_traits<unsigned short, unsigned short, std::less<unsigned short>, std::allocator<std::pair<unsigned short const, unsigned short>>, (bool)0>>::_Rrotate(std::_Tree_nod<std::_Tmap_traits<unsigned short, unsigned short, std::less<unsigned short>, std::allocator<std::pair<unsigned short const, unsigned short>>, (bool)0>>::_Node *)
                        0x10053875    0x38  Code  Gb  btle.o [1]
std::_Tree<std::_Tmap_traits<unsigned short, unsigned short, std::less<unsigned short>, std::allocator<std::pair<unsigned short const, unsigned short>>, (bool)0>>::_Xlong() const
                        0x1005381d    0x20  Code  Gb  BlueNRG1GattServer.o [1]
std::_Tree<std::_Tmap_traits<unsigned short, unsigned short, std::less<unsigned short>, std::allocator<std::pair<unsigned short const, unsigned short>>, (bool)0>>::_Xlong() const::string
                        0x1005b944    0x14  Data  Gb  BlueNRG1GattServer.o [1]
std::_Tree<std::_Tmap_traits<unsigned short, unsigned short, std::less<unsigned short>, std::allocator<std::pair<unsigned short const, unsigned short>>, (bool)0>>::erase(std::_Tree<std::_Tmap_traits<unsigned short, unsigned short, std::less<unsigned short>, std::allocator<std::pair<unsigned short const, unsigned short>>, (bool)0>>::const_iterator)
                        0x10057cbd   0x24c  Code  Gb  btle.o [1]
std::_Tree<std::_Tmap_traits<unsigned short, unsigned short, std::less<unsigned short>, std::allocator<std::pair<unsigned short const, unsigned short>>, (bool)0>>::erase(std::_Tree<std::_Tmap_traits<unsigned short, unsigned short, std::less<unsigned short>, std::allocator<std::pair<unsigned short const, unsigned short>>, (bool)0>>::const_iterator)::string
                        0x1005b6d4    0x1c  Data  Gb  btle.o [1]
std::_Tree<std::_Tmap_traits<unsigned short, unsigned short, std::less<unsigned short>, std::allocator<std::pair<unsigned short const, unsigned short>>, (bool)0>>::erase(std::_Tree<std::_Tmap_traits<unsigned short, unsigned short, std::less<unsigned short>, std::allocator<std::pair<unsigned short const, unsigned short>>, (bool)0>>::const_iterator, std::_Tree<std::_Tmap_traits<unsigned short, unsigned short, std::less<unsigned short>, std::allocator<std::pair<unsigned short const, unsigned short>>, (bool)0>>::const_iterator)
                        0x1005a4d3    0x76  Code  Gb  btle.o [1]
std::_Tree<std::_Tmap_traits<unsigned short, unsigned short, std::less<unsigned short>, std::allocator<std::pair<unsigned short const, unsigned short>>, (bool)0>>::find(unsigned short const &)
                        0x1004f193    0x30  Code  Gb  BlueNRG1GattServer.o [1]
std::_Tree<std::_Tmap_traits<unsigned short, unsigned short, std::less<unsigned short>, std::allocator<std::pair<unsigned short const, unsigned short>>, (bool)0>>::insert(std::pair<unsigned short const, unsigned short> const &)
                        0x1004f095    0xae  Code  Gb  BlueNRG1GattServer.o [1]
std::__iar_ThrowNoThrow(std::exception const &)
                        0x10055695     0x8  Code  Gb  xthrow_no_throw.o [4]
std::exception::exception() [subobject]
                        0x10056629     0x6  Code  Gb  exception.o [4]
std::length_error::length_error(const std::string&)
                        0x1005566d    0x28  Code  Gb  BlueNRG1GattServer.o [1]
std::map<unsigned short, unsigned short, std::less<unsigned short>, std::allocator<std::pair<unsigned short const, unsigned short>>>::map()
                        0x10050a01    0x40  Code  Gb  btle.o [1]
std::map<unsigned short, unsigned short, std::less<unsigned short>, std::allocator<std::pair<unsigned short const, unsigned short>>>::~map()
                        0x1005ab6d    0x1c  Code  Gb  btle.o [1]
std::nothrow            0x1005bc64     0x4  Data  Gb  nothrow.o [4]
std::out_of_range::out_of_range(const std::string&)
                        0x10057f09    0x28  Code  Gb  btle.o [1]
std::string::_Eos(unsigned int)
                        0x10056613    0x16  Code  Gb  btle.o [1]
std::string::_Grow(unsigned int, bool)
                        0x10056557    0xbc  Code  Gb  BlueNRG1Device.o [1]
std::string::_Myptr()   0x100564d3     0xe  Code  Gb  btle.o [1]
std::string::_Myptr() const
                        0x10056b05     0xe  Code  Gb  btle.o [1]
std::string::_Tidy(bool, unsigned int)
                        0x100564a1    0x32  Code  Gb  btle.o [1]
std::string::assign(const std::string&, unsigned int, unsigned int)
                        0x100564e1    0x76  Code  Gb  btle.o [1]
std::string::basic_string(char const *)
                        0x100555fd    0x6e  Code  Gb  BlueNRG1Device.o [1]
std::string::basic_string(const std::string&)
                        0x10056635    0x1e  Code  Gb  btle.o [1]
std::string::erase(unsigned int, unsigned int)
                        0x10056aad    0x58  Code  Gb  BlueNRG1GattServer.o [1]
std_mutex_file          0x200042c8   0x118  Data  Lc  mbed_boot.o [1]
std_mutex_id_file       0x200042a0    0x28  Data  Lc  mbed_boot.o [1]
std_mutex_id_sys        0x200044a4    0x14  Data  Lc  mbed_boot.o [1]
std_mutex_sys           0x200044b8    0x8c  Data  Lc  mbed_boot.o [1]
stdio_uart              0x200049c8    0x10  Data  Gb  serial_api.o [1]
stdio_uart_inited       0x20004a18     0x4  Data  Gb  serial_api.o [1]
strlen                  0x1004bae5    0x10  Code  Gb  strlen.o [7]
strncmp                 0x1004c251    0x2c  Code  Gb  strncmp.o [3]
svcRtxDelay             0x1004ab8d    0x14  Code  Gb  rtx_delay.o [1]
svcRtxEventFlagsDelete  0x1004c5d1    0x72  Code  Gb  rtx_evflags.o [1]
svcRtxEventFlagsNew     0x1004c55b    0x76  Code  Gb  rtx_evflags.o [1]
svcRtxKernelGetState    0x100475cd     0xe  Code  Gb  rtx_kernel.o [1]
svcRtxKernelInitialize  0x10047445   0x17a  Code  Gb  rtx_kernel.o [1]
svcRtxKernelStart       0x100475db    0xa6  Code  Gb  rtx_kernel.o [1]
svcRtxMessageQueueGet   0x10056f8f   0x106  Code  Gb  rtx_msgqueue.o [1]
svcRtxMessageQueueNew   0x10056d37   0x16e  Code  Gb  rtx_msgqueue.o [1]
svcRtxMessageQueuePut   0x10056ea5    0xea  Code  Gb  rtx_msgqueue.o [1]
svcRtxMutexAcquire      0x10047857    0xca  Code  Gb  rtx_mutex.o [1]
svcRtxMutexDelete       0x10047a13    0xba  Code  Gb  rtx_mutex.o [1]
svcRtxMutexNew          0x100477db    0x7c  Code  Gb  rtx_mutex.o [1]
svcRtxMutexRelease      0x10047921    0xdc  Code  Gb  rtx_mutex.o [1]
svcRtxThreadExit        0x1004727d    0xa0  Code  Gb  rtx_thread.o [1]
svcRtxThreadGetId       0x10047209    0x10  Code  Gb  rtx_thread.o [1]
svcRtxThreadGetName     0x100471df    0x2a  Code  Gb  rtx_thread.o [1]
svcRtxThreadNew         0x10046fd9   0x206  Code  Gb  rtx_thread.o [1]
swap_char               0x10044141     0xa  Code  Lc  multi_master_time.o [5]
swap_short_int          0x1004414b     0xa  Code  Lc  multi_master_time.o [5]
sys_alloc               0x100454a5   0x3e8  Code  Lc  dlmalloc.o [3]
syslock_o               0x20004894     0x4  Data  Lc  xsyslock_mtx.o [3]
system_time_trans       0x10043135     0xa  Code  Gb  rom_ll_timehandling.o [5]
system_time_trans_ext   0x100441b5    0x26  Code  Gb  rom_ll_timehandling.o [5]
terminate_hook          0x20004a1c     0x4  Data  Lc  Thread.o [1]
thread_terminate_hook   0x10048e41    0x10  Code  Gb  Thread.o [1]
ticker_insert_event_us  0x1004a9f9    0x52  Code  Gb  mbed_ticker_api.o [1]
ticker_read             0x1004aa7f     0x4  Code  Gb  mbed_ticker_api.o [1]
ticker_read_us          0x1004aa83     0x2  Code  Gb  mbed_ticker_api.o [1]
ticker_remove_event     0x1004aa4b    0x34  Code  Gb  mbed_ticker_api.o [1]
ticker_set_handler      0x1004a9e9    0x10  Code  Gb  mbed_ticker_api.o [1]
time_offset1            0x1004417f     0xe  Code  Gb  rom_ll_timehandling.o [5]
time_offset2            0x1004419d     0xc  Code  Gb  rom_ll_timehandling.o [5]
timebase_start_connect  0x100440cd    0x36  Code  Gb  multi_master_time.o [5]
tmalloc_large           0x10045899   0x3ca  Code  Lc  dlmalloc.o [3]
tmalloc_small           0x10045c69   0x230  Code  Lc  dlmalloc.o [3]
touch_it                0x200005dc     0x1  Data  Gb  rom_global_var.o [5]
unpack_channel_map      0x1004288b    0x38  Code  Gb  rom_ll_isr_routines.o [5]
unpack_update_request   0x10042845    0x46  Code  Gb  rom_ll_isr_routines.o [5]
unsigned char * std::_Copy_opt<unsigned char const *, unsigned char *>(unsigned char const *, unsigned char const *, unsigned char *, std::_Scalar_ptr_iterator_tag)
                        0x1005233b    0x14  Code  Gb  GenericGattClient.o [1]
update_present_time     0x1004a819    0xf4  Code  Lc  mbed_ticker_api.o [1]
us_data                 0x1004a6e8     0x8  Data  Lc  mbed_us_ticker_api.o [1]
us_interface            0x1005b6f0    0x1c  Data  Lc  mbed_us_ticker_api.o [1]
us_ticker_clear_interrupt
                        0x10059e99     0x2  Code  Gb  us_ticker_api.o [1]
us_ticker_disable_interrupt
                        0x10059e7f     0xc  Code  Gb  us_ticker_api.o [1]
us_ticker_fire_interrupt
                        0x10059e9b     0x2  Code  Gb  us_ticker_api.o [1]
us_ticker_get_info      0x1005bc41     0x8  Code  Wk  mbed_retarget.o [1]
us_ticker_get_info::info
                        0x1005bc30     0x8  Data  Lc  mbed_retarget.o [1]
us_ticker_init          0x10059dff    0x5c  Code  Gb  us_ticker_api.o [1]
us_ticker_read          0x10059e5b    0x18  Code  Gb  us_ticker_api.o [1]
us_ticker_set_interrupt
                        0x10059e73     0xc  Code  Gb  us_ticker_api.o [1]
uuid16_list             0x10047f00     0x2  Data  Lc  main.o [1]
void mbed::Callback<void ()>::function_call<void (*)()>(void const *)
                        0x1005bc49     0x8  Code  Gb  utest_shim.o [1]
void mbed::Callback<void ()>::function_dtor<void (*)()>(void *)
                        0x10048e67     0x2  Code  Gb  utest_shim.o [1]
void mbed::Callback<void ()>::function_move<void (*)()>(void *, void const *)
                        0x10044423     0xa  Code  Gb  utest_shim.o [1]
void mbed::Callback<void ()>::generate<void (*)()>(void (*)() const &)::ops
                        0x1005bbc8     0xc  Data  Gb  utest_shim.o [1]
void mbed::Callback<void (int)>::function_call<void (*)(int)>(void const *, int)
                        0x1005bbe1     0xc  Code  Gb  EventQueue.o [1]
void mbed::Callback<void (int)>::function_dtor<void (*)(int)>(void *)
                        0x1004475b     0x2  Code  Gb  EventQueue.o [1]
void mbed::Callback<void (int)>::function_move<void (*)(int)>(void *, void const *)
                        0x10043fab     0xa  Code  Gb  EventQueue.o [1]
void mbed::Callback<void (int)>::generate<void (*)(int)>(void (*)(int) const &)::ops
                        0x1005bbbc     0xc  Data  Gb  EventQueue.o [1]
vsnprintf               0x10048edd    0x3c  Code  Gb  vsnprint.o [3]
wait                    0x10048d09     0xe  Code  Gb  mbed_wait_api_rtos.o [1]
wait_ms                 0x10048d1d     0xe  Code  Gb  mbed_wait_api_rtos.o [1]
wait_us                 0x10048d2b     0x2  Code  Gb  mbed_wait_api_rtos.o [1]
wakeupFromSleepFlag     0x2000000c     0x1  Data  Gb  system_bluenrg1.o [1]
wakeupFromSleepFlag_block$$Base
                        0x2000000c           --   Gb  - Linker created -
wakeupFromSleepFlag_block$$Limit
                        0x20000010           --   Gb  - Linker created -


[1] = C:\Users\Gianluca\Documents\mbed\Heart\BUILD\Obj
[2] = command line
[3] = dl6M_tlf.a
[4] = dlpp6M_tl_fc.a
[5] = libbluenrg1_stack.a
[6] = m6M_tl.a
[7] = rt6M_tl.a

  110 890 bytes of readonly  code memory
    5 178 bytes of readonly  data memory
   24 182 bytes of readwrite data memory

Errors: none
Warnings: none
